ARM GAS  C:\Users\moxon\AppData\Local\Temp\ccaddu61.s 			page 1


   1              		.cpu cortex-m0
   2              		.fpu softvfp
   3              		.eabi_attribute 20, 1
   4              		.eabi_attribute 21, 1
   5              		.eabi_attribute 23, 3
   6              		.eabi_attribute 24, 1
   7              		.eabi_attribute 25, 1
   8              		.eabi_attribute 26, 1
   9              		.eabi_attribute 30, 6
  10              		.eabi_attribute 34, 0
  11              		.eabi_attribute 18, 4
  12              		.code	16
  13              		.file	"main.c"
  14              		.text
  15              	.Ltext0:
  16              		.cfi_sections	.debug_frame
  17              		.global	dataReady
  18              		.bss
  19              		.align	2
  20              		.type	dataReady, %object
  21              		.size	dataReady, 4
  22              	dataReady:
  23 0000 00000000 		.space	4
  24              		.comm	result,6,4
  25              		.global	timer_delay
  26              		.align	2
  27              		.type	timer_delay, %object
  28              		.size	timer_delay, 4
  29              	timer_delay:
  30 0004 00000000 		.space	4
  31              		.section	.text.TIMER_1_IRQ_Handler,"ax",%progbits
  32              		.align	2
  33              		.global	TIMER_1_IRQ_Handler
  34              		.code	16
  35              		.thumb_func
  36              		.type	TIMER_1_IRQ_Handler, %function
  37              	TIMER_1_IRQ_Handler:
  38              	.LFB33:
  39              		.file 1 ".\\main.c"
   1:.\main.c      **** /*-------------------------------------------------------------*/
   2:.\main.c      **** /* PatternAgents, LLC                                          */
   3:.\main.c      **** /* Intro to Programmable Logic                                 */
   4:.\main.c      **** /* Lab Four - ADC, PWM, UART Example                           */
   5:.\main.c      **** /*-------------------------------------------------------------*/
   6:.\main.c      **** 
   7:.\main.c      **** #include <project.h>
   8:.\main.c      **** #include <ADC_1.h>
   9:.\main.c      **** #include <stdio.h>
  10:.\main.c      **** #include <stdlib.h>
  11:.\main.c      **** #include <string.h>
  12:.\main.c      **** 
  13:.\main.c      **** #define CH0_N               (0x00u)
  14:.\main.c      **** #define CH1_N               (0x01u)
  15:.\main.c      **** #define TEMP_CH             (0x02u)
  16:.\main.c      **** #define DELAY_1SEC          (1000u)
  17:.\main.c      **** 
  18:.\main.c      **** /* Get actual Vref. value from ADC SAR sequencer */
ARM GAS  C:\Users\moxon\AppData\Local\Temp\ccaddu61.s 			page 2


  19:.\main.c      **** #define ADC_VREF_VALUE_V    ((float)ADC_1_DEFAULT_VREF_MV_VALUE/1000.0)
  20:.\main.c      **** 
  21:.\main.c      **** volatile uint32 dataReady = 0u;
  22:.\main.c      **** volatile int16 result[ADC_1_TOTAL_CHANNELS_NUM];
  23:.\main.c      **** volatile uint32 timer_delay = 0u;
  24:.\main.c      **** 
  25:.\main.c      **** 
  26:.\main.c      **** /* Prototype the TIMER_1 Interrupt Handler */
  27:.\main.c      **** CY_ISR_PROTO( TIMER_1_IRQ_Handler );
  28:.\main.c      **** 
  29:.\main.c      **** /* TIMER_1 Interrupt Handler */
  30:.\main.c      **** CY_ISR( TIMER_1_IRQ_Handler )
  31:.\main.c      **** {
  40              		.loc 1 31 0
  41              		.cfi_startproc
  42 0000 80B5     		push	{r7, lr}
  43              		.cfi_def_cfa_offset 8
  44              		.cfi_offset 7, -8
  45              		.cfi_offset 14, -4
  46 0002 00AF     		add	r7, sp, #0
  47              		.cfi_def_cfa_register 7
  32:.\main.c      ****     Bootloadable_Load(); /* Start the bootloader running now */       
  48              		.loc 1 32 0
  49 0004 FFF7FEFF 		bl	Bootloadable_Load
  33:.\main.c      **** }
  50              		.loc 1 33 0
  51 0008 BD46     		mov	sp, r7
  52              		@ sp needed
  53 000a 80BD     		pop	{r7, pc}
  54              		.cfi_endproc
  55              	.LFE33:
  56              		.size	TIMER_1_IRQ_Handler, .-TIMER_1_IRQ_Handler
  57              		.section	.text.PWM_1_IRQ_Handler,"ax",%progbits
  58              		.align	2
  59              		.global	PWM_1_IRQ_Handler
  60              		.code	16
  61              		.thumb_func
  62              		.type	PWM_1_IRQ_Handler, %function
  63              	PWM_1_IRQ_Handler:
  64              	.LFB34:
  34:.\main.c      **** 
  35:.\main.c      **** /* Prototype the PWM_1 Interrupt Handler */
  36:.\main.c      **** CY_ISR_PROTO( PWM_1_IRQ_Handler );
  37:.\main.c      **** 
  38:.\main.c      **** /* PWM_1 Interrupt Handler */
  39:.\main.c      **** CY_ISR( PWM_1_IRQ_Handler )
  40:.\main.c      **** {
  65              		.loc 1 40 0
  66              		.cfi_startproc
  67 0000 80B5     		push	{r7, lr}
  68              		.cfi_def_cfa_offset 8
  69              		.cfi_offset 7, -8
  70              		.cfi_offset 14, -4
  71 0002 00AF     		add	r7, sp, #0
  72              		.cfi_def_cfa_register 7
  41:.\main.c      ****     timer_delay++;
  73              		.loc 1 41 0
ARM GAS  C:\Users\moxon\AppData\Local\Temp\ccaddu61.s 			page 3


  74 0004 0A4B     		ldr	r3, .L4
  75 0006 1B68     		ldr	r3, [r3]
  76 0008 5A1C     		add	r2, r3, #1
  77 000a 094B     		ldr	r3, .L4
  78 000c 1A60     		str	r2, [r3]
  42:.\main.c      ****     
  43:.\main.c      ****     /* Measures temperature once per second */
  44:.\main.c      ****     if(timer_delay > DELAY_1SEC)
  79              		.loc 1 44 0
  80 000e 084B     		ldr	r3, .L4
  81 0010 1A68     		ldr	r2, [r3]
  82 0012 FA23     		mov	r3, #250
  83 0014 9B00     		lsl	r3, r3, #2
  84 0016 9A42     		cmp	r2, r3
  85 0018 04D9     		bls	.L3
  45:.\main.c      ****     {
  46:.\main.c      ****         /* Enables injection channel for next scan */
  47:.\main.c      ****         ADC_1_EnableInjection();
  86              		.loc 1 47 0
  87 001a FFF7FEFF 		bl	ADC_1_EnableInjection
  48:.\main.c      ****         timer_delay = 0u;
  88              		.loc 1 48 0
  89 001e 044B     		ldr	r3, .L4
  90 0020 0022     		mov	r2, #0
  91 0022 1A60     		str	r2, [r3]
  92              	.L3:
  49:.\main.c      ****     }    
  50:.\main.c      ****     
  51:.\main.c      ****     /* Clears interrupt request from terminal count */
  52:.\main.c      ****     PWM_1_ClearInterrupt(PWM_1_INTR_MASK_TC);
  93              		.loc 1 52 0
  94 0024 0120     		mov	r0, #1
  95 0026 FFF7FEFF 		bl	PWM_1_ClearInterrupt
  53:.\main.c      **** }
  96              		.loc 1 53 0
  97 002a BD46     		mov	sp, r7
  98              		@ sp needed
  99 002c 80BD     		pop	{r7, pc}
 100              	.L5:
 101 002e C046     		.align	2
 102              	.L4:
 103 0030 00000000 		.word	timer_delay
 104              		.cfi_endproc
 105              	.LFE34:
 106              		.size	PWM_1_IRQ_Handler, .-PWM_1_IRQ_Handler
 107              		.section	.text.ADC_1_IRQ_Handler,"ax",%progbits
 108              		.align	2
 109              		.global	ADC_1_IRQ_Handler
 110              		.code	16
 111              		.thumb_func
 112              		.type	ADC_1_IRQ_Handler, %function
 113              	ADC_1_IRQ_Handler:
 114              	.LFB35:
  54:.\main.c      **** 
  55:.\main.c      **** /* Prototype the ADC_1 Interrupt Handler */
  56:.\main.c      **** CY_ISR_PROTO( ADC_1_IRQ_Handler );
  57:.\main.c      **** 
ARM GAS  C:\Users\moxon\AppData\Local\Temp\ccaddu61.s 			page 4


  58:.\main.c      **** /* ADC_1 Interrupt Handler */
  59:.\main.c      **** CY_ISR( ADC_1_IRQ_Handler )
  60:.\main.c      **** {
 115              		.loc 1 60 0
 116              		.cfi_startproc
 117 0000 80B5     		push	{r7, lr}
 118              		.cfi_def_cfa_offset 8
 119              		.cfi_offset 7, -8
 120              		.cfi_offset 14, -4
 121 0002 82B0     		sub	sp, sp, #8
 122              		.cfi_def_cfa_offset 16
 123 0004 00AF     		add	r7, sp, #0
 124              		.cfi_def_cfa_register 7
  61:.\main.c      ****     uint32 intr_status;
  62:.\main.c      ****     uint32 range_status;
  63:.\main.c      **** 
  64:.\main.c      ****     /* Read interrupt status registers */
  65:.\main.c      ****     intr_status = ADC_1_SAR_INTR_MASKED_REG;
 125              		.loc 1 65 0
 126 0006 214B     		ldr	r3, .L10
 127 0008 1B68     		ldr	r3, [r3]
 128 000a 7B60     		str	r3, [r7, #4]
  66:.\main.c      ****     /* Check for End of Scan interrupt */
  67:.\main.c      ****     if((intr_status & ADC_1_EOS_MASK) != 0u)
 129              		.loc 1 67 0
 130 000c 7A68     		ldr	r2, [r7, #4]
 131 000e 0123     		mov	r3, #1
 132 0010 1340     		and	r3, r2
 133 0012 24D0     		beq	.L7
  68:.\main.c      ****     {
  69:.\main.c      ****         /* Read range detect status */
  70:.\main.c      ****         range_status = ADC_1_SAR_RANGE_INTR_MASKED_REG;
 134              		.loc 1 70 0
 135 0014 1E4B     		ldr	r3, .L10+4
 136 0016 1B68     		ldr	r3, [r3]
 137 0018 3B60     		str	r3, [r7]
  71:.\main.c      ****         /* Verify that the conversion result met the condition Low_Limit <= Result < High_Limit  */
  72:.\main.c      ****         if((range_status & (uint32)(1ul << CH0_N)) != 0u) 
 138              		.loc 1 72 0
 139 001a 3A68     		ldr	r2, [r7]
 140 001c 0123     		mov	r3, #1
 141 001e 1340     		and	r3, r2
 142 0020 14D0     		beq	.L8
  73:.\main.c      ****         {
  74:.\main.c      ****             /* Read conversion result */
  75:.\main.c      ****             result[CH0_N] = ADC_1_GetResult16(CH0_N);
 143              		.loc 1 75 0
 144 0022 0020     		mov	r0, #0
 145 0024 FFF7FEFF 		bl	ADC_1_GetResult16
 146 0028 031C     		mov	r3, r0
 147 002a 1A1C     		mov	r2, r3
 148 002c 194B     		ldr	r3, .L10+8
 149 002e 1A80     		strh	r2, [r3]
  76:.\main.c      ****             result[CH1_N] = ADC_1_GetResult16(CH1_N);
 150              		.loc 1 76 0
 151 0030 0120     		mov	r0, #1
 152 0032 FFF7FEFF 		bl	ADC_1_GetResult16
ARM GAS  C:\Users\moxon\AppData\Local\Temp\ccaddu61.s 			page 5


 153 0036 031C     		mov	r3, r0
 154 0038 1A1C     		mov	r2, r3
 155 003a 164B     		ldr	r3, .L10+8
 156 003c 5A80     		strh	r2, [r3, #2]
  77:.\main.c      ****             /* Set PWM compare from channel0 */
  78:.\main.c      ****             PWM_1_WriteCompare(result[CH0_N]);
 157              		.loc 1 78 0
 158 003e 154B     		ldr	r3, .L10+8
 159 0040 1B88     		ldrh	r3, [r3]
 160 0042 9BB2     		uxth	r3, r3
 161 0044 1BB2     		sxth	r3, r3
 162 0046 181C     		mov	r0, r3
 163 0048 FFF7FEFF 		bl	PWM_1_WriteCompare
 164              	.L8:
  79:.\main.c      ****         }    
  80:.\main.c      **** 
  81:.\main.c      ****         /* Clear range detect status */
  82:.\main.c      ****         ADC_1_SAR_RANGE_INTR_REG = range_status;
 165              		.loc 1 82 0
 166 004c 124B     		ldr	r3, .L10+12
 167 004e 3A68     		ldr	r2, [r7]
 168 0050 1A60     		str	r2, [r3]
  83:.\main.c      ****         dataReady |= ADC_1_EOS_MASK;
 169              		.loc 1 83 0
 170 0052 124B     		ldr	r3, .L10+16
 171 0054 1B68     		ldr	r3, [r3]
 172 0056 0122     		mov	r2, #1
 173 0058 1A43     		orr	r2, r3
 174 005a 104B     		ldr	r3, .L10+16
 175 005c 1A60     		str	r2, [r3]
 176              	.L7:
  84:.\main.c      ****     }    
  85:.\main.c      **** 
  86:.\main.c      ****     /* Check for Injection End of Conversion */
  87:.\main.c      ****     if((intr_status & ADC_1_INJ_EOC_MASK) != 0u)
 177              		.loc 1 87 0
 178 005e 7A68     		ldr	r2, [r7, #4]
 179 0060 1023     		mov	r3, #16
 180 0062 1340     		and	r3, r2
 181 0064 0CD0     		beq	.L9
  88:.\main.c      ****     {
  89:.\main.c      ****         result[TEMP_CH] = ADC_1_GetResult16(TEMP_CH);
 182              		.loc 1 89 0
 183 0066 0220     		mov	r0, #2
 184 0068 FFF7FEFF 		bl	ADC_1_GetResult16
 185 006c 031C     		mov	r3, r0
 186 006e 1A1C     		mov	r2, r3
 187 0070 084B     		ldr	r3, .L10+8
 188 0072 9A80     		strh	r2, [r3, #4]
  90:.\main.c      ****         dataReady |= ADC_1_INJ_EOC_MASK;
 189              		.loc 1 90 0
 190 0074 094B     		ldr	r3, .L10+16
 191 0076 1B68     		ldr	r3, [r3]
 192 0078 1022     		mov	r2, #16
 193 007a 1A43     		orr	r2, r3
 194 007c 074B     		ldr	r3, .L10+16
 195 007e 1A60     		str	r2, [r3]
ARM GAS  C:\Users\moxon\AppData\Local\Temp\ccaddu61.s 			page 6


 196              	.L9:
  91:.\main.c      ****     }    
  92:.\main.c      **** 
  93:.\main.c      ****     /* Clear handled interrupt */
  94:.\main.c      ****     ADC_1_SAR_INTR_REG = intr_status;    
 197              		.loc 1 94 0
 198 0080 074B     		ldr	r3, .L10+20
 199 0082 7A68     		ldr	r2, [r7, #4]
 200 0084 1A60     		str	r2, [r3]
  95:.\main.c      **** }
 201              		.loc 1 95 0
 202 0086 BD46     		mov	sp, r7
 203 0088 02B0     		add	sp, sp, #8
 204              		@ sp needed
 205 008a 80BD     		pop	{r7, pc}
 206              	.L11:
 207              		.align	2
 208              	.L10:
 209 008c 1C021A40 		.word	1075446300
 210 0090 3C021A40 		.word	1075446332
 211 0094 00000000 		.word	result
 212 0098 30021A40 		.word	1075446320
 213 009c 00000000 		.word	dataReady
 214 00a0 10021A40 		.word	1075446288
 215              		.cfi_endproc
 216              	.LFE35:
 217              		.size	ADC_1_IRQ_Handler, .-ADC_1_IRQ_Handler
 218              		.section	.rodata
 219              		.align	2
 220              	.LC4:
 221 0000 0D0A2050 		.ascii	"\015\012 PatternAgents Lab#4 \015\012\000"
 221      61747465 
 221      726E4167 
 221      656E7473 
 221      204C6162 
 222 001a 0000     		.align	2
 223              	.LC10:
 224 001c 54656D70 		.ascii	"Temperature value: %dC \015\012\000"
 224      65726174 
 224      75726520 
 224      76616C75 
 224      653A2025 
 225 0036 0000     		.align	2
 226              	.LC12:
 227 0038 4130206D 		.ascii	"A0 measured voltage: %dmV \015\012\000"
 227      65617375 
 227      72656420 
 227      766F6C74 
 227      6167653A 
 228 0055 000000   		.align	2
 229              	.LC14:
 230 0058 4131206D 		.ascii	"A1 measured voltage: %dmV \015\012\000"
 230      65617375 
 230      72656420 
 230      766F6C74 
 230      6167653A 
 231 0075 000000   		.align	2
ARM GAS  C:\Users\moxon\AppData\Local\Temp\ccaddu61.s 			page 7


 232              	.LC16:
 233 0078 53776974 		.ascii	"Switches: %d, %d, %d \015\012\000"
 233      63686573 
 233      3A202564 
 233      2C202564 
 233      2C202564 
 234              		.section	.text.main,"ax",%progbits
 235              		.align	2
 236              		.global	main
 237              		.code	16
 238              		.thumb_func
 239              		.type	main, %function
 240              	main:
 241              	.LFB36:
  96:.\main.c      **** 
  97:.\main.c      **** int main()
  98:.\main.c      **** {
 242              		.loc 1 98 0
 243              		.cfi_startproc
 244 0000 90B5     		push	{r4, r7, lr}
 245              		.cfi_def_cfa_offset 12
 246              		.cfi_offset 4, -12
 247              		.cfi_offset 7, -8
 248              		.cfi_offset 14, -4
 249 0002 C5B0     		sub	sp, sp, #276
 250              		.cfi_def_cfa_offset 288
 251 0004 02AF     		add	r7, sp, #8
 252              		.cfi_def_cfa 7, 280
  99:.\main.c      ****     int16 res, res1 = 0;
 253              		.loc 1 99 0
 254 0006 7B1D     		add	r3, r7, #5
 255 0008 FF33     		add	r3, r3, #255
 256 000a 0022     		mov	r2, #0
 257 000c 1A80     		strh	r2, [r3]
 100:.\main.c      ****     char SW1, SW2, SW3 = 0;
 258              		.loc 1 100 0
 259 000e 3B1D     		add	r3, r7, #4
 260 0010 FF33     		add	r3, r3, #255
 261 0012 0022     		mov	r2, #0
 262 0014 1A70     		strb	r2, [r3]
 101:.\main.c      ****     int32 temperature;
 102:.\main.c      ****     char  uartLine[250];
 103:.\main.c      ****     int16 ADCCountsCorrected;
 104:.\main.c      **** 
 105:.\main.c      ****     /* Start TIMER_1 - it only counts when SW1 is pressed */
 106:.\main.c      ****     TIMER_1_Start();
 263              		.loc 1 106 0
 264 0016 FFF7FEFF 		bl	TIMER_1_Start
 107:.\main.c      ****     /* Clear any pending Interrupts for TIMER_1 */
 108:.\main.c      ****     TIMER_1_IRQ_ClearPending();
 265              		.loc 1 108 0
 266 001a FFF7FEFF 		bl	TIMER_1_IRQ_ClearPending
 109:.\main.c      ****     /* Install the Interrupt Service Handler Routine for TIMER_1 */
 110:.\main.c      ****     TIMER_1_IRQ_StartEx( TIMER_1_IRQ_Handler );
 267              		.loc 1 110 0
 268 001e 5F4B     		ldr	r3, .L16
 269 0020 181C     		mov	r0, r3
ARM GAS  C:\Users\moxon\AppData\Local\Temp\ccaddu61.s 			page 8


 270 0022 FFF7FEFF 		bl	TIMER_1_IRQ_StartEx
 111:.\main.c      **** 
 112:.\main.c      ****     /* Initialize the UART */
 113:.\main.c      ****     UART_1_Start();
 271              		.loc 1 113 0
 272 0026 FFF7FEFF 		bl	UART_1_Start
 114:.\main.c      ****     UART_1_UartPutString("\r\n PatternAgents Lab#4 \r\n");
 273              		.loc 1 114 0
 274 002a 5D4B     		ldr	r3, .L16+4
 275 002c 181C     		mov	r0, r3
 276 002e FFF7FEFF 		bl	UART_1_UartPutString
 115:.\main.c      **** 
 116:.\main.c      ****     /* Start the PWM */
 117:.\main.c      ****     PWM_1_Start();
 277              		.loc 1 117 0
 278 0032 FFF7FEFF 		bl	PWM_1_Start
 118:.\main.c      ****     PWM_1_TriggerCommand(PWM_1_MASK, PWM_1_CMD_START);
 279              		.loc 1 118 0
 280 0036 0220     		mov	r0, #2
 281 0038 1821     		mov	r1, #24
 282 003a FFF7FEFF 		bl	PWM_1_TriggerCommand
 119:.\main.c      ****     /* Clear any pending Interrupts for PWM_1 */
 120:.\main.c      ****     PWM_1_IRQ_ClearPending();
 283              		.loc 1 120 0
 284 003e FFF7FEFF 		bl	PWM_1_IRQ_ClearPending
 121:.\main.c      ****     /* Install the Interrupt Service Handler Routine for PWM_1 */
 122:.\main.c      ****     PWM_1_IRQ_StartEx( PWM_1_IRQ_Handler );
 285              		.loc 1 122 0
 286 0042 584B     		ldr	r3, .L16+8
 287 0044 181C     		mov	r0, r3
 288 0046 FFF7FEFF 		bl	PWM_1_IRQ_StartEx
 123:.\main.c      **** 
 124:.\main.c      ****     /* Init and start sequencing SAR ADC */
 125:.\main.c      ****     ADC_1_Start();
 289              		.loc 1 125 0
 290 004a FFF7FEFF 		bl	ADC_1_Start
 126:.\main.c      ****     ADC_1_StartConvert();
 291              		.loc 1 126 0
 292 004e FFF7FEFF 		bl	ADC_1_StartConvert
 127:.\main.c      ****     /* Enable interrupt and set interrupt handler to local routine */
 128:.\main.c      ****     ADC_1_IRQ_StartEx(ADC_1_IRQ_Handler);
 293              		.loc 1 128 0
 294 0052 554B     		ldr	r3, .L16+12
 295 0054 181C     		mov	r0, r3
 296 0056 FFF7FEFF 		bl	ADC_1_IRQ_StartEx
 129:.\main.c      ****     
 130:.\main.c      ****     /* Enable All Interrupts (Global) */
 131:.\main.c      ****     CyGlobalIntEnable;
 297              		.loc 1 131 0
 298              	@ 131 ".\main.c" 1
 299 005a 62B6     		CPSIE   i
 300              	@ 0 "" 2
 301              		.code	16
 302              	.L15:
 132:.\main.c      **** 
 133:.\main.c      ****     /* Main (infinite) loop - Does nothing! it's all Hardware! */
 134:.\main.c      ****     for(;;)
ARM GAS  C:\Users\moxon\AppData\Local\Temp\ccaddu61.s 			page 9


 135:.\main.c      ****     {
 136:.\main.c      ****         /* When conversion of sequencing channels has completed */
 137:.\main.c      ****         if((dataReady & ADC_1_EOS_MASK) != 0u)
 303              		.loc 1 137 0
 304 005c 534B     		ldr	r3, .L16+16
 305 005e 1A68     		ldr	r2, [r3]
 306 0060 0123     		mov	r3, #1
 307 0062 1340     		and	r3, r2
 308 0064 1FD0     		beq	.L13
 138:.\main.c      ****         {
 139:.\main.c      ****             /* Get voltage, measured by ADC */
 140:.\main.c      ****             dataReady &= ~ADC_1_EOS_MASK;
 309              		.loc 1 140 0
 310 0066 514B     		ldr	r3, .L16+16
 311 0068 1B68     		ldr	r3, [r3]
 312 006a 0122     		mov	r2, #1
 313 006c 191C     		mov	r1, r3
 314 006e 9143     		bic	r1, r2
 315 0070 0A1C     		mov	r2, r1
 316 0072 4E4B     		ldr	r3, .L16+16
 317 0074 1A60     		str	r2, [r3]
 141:.\main.c      ****             res  = ADC_1_CountsTo_mVolts(CH0_N, result[CH0_N]);
 318              		.loc 1 141 0
 319 0076 4E4B     		ldr	r3, .L16+20
 320 0078 1B88     		ldrh	r3, [r3]
 321 007a 9BB2     		uxth	r3, r3
 322 007c FC1D     		add	r4, r7, #7
 323 007e FF34     		add	r4, r4, #255
 324 0080 1BB2     		sxth	r3, r3
 325 0082 0020     		mov	r0, #0
 326 0084 191C     		mov	r1, r3
 327 0086 FFF7FEFF 		bl	ADC_1_CountsTo_mVolts
 328 008a 031C     		mov	r3, r0
 329 008c 2380     		strh	r3, [r4]
 142:.\main.c      ****             res1 = ADC_1_CountsTo_mVolts(CH1_N, result[CH1_N]);
 330              		.loc 1 142 0
 331 008e 484B     		ldr	r3, .L16+20
 332 0090 5B88     		ldrh	r3, [r3, #2]
 333 0092 9BB2     		uxth	r3, r3
 334 0094 7C1D     		add	r4, r7, #5
 335 0096 FF34     		add	r4, r4, #255
 336 0098 1BB2     		sxth	r3, r3
 337 009a 0120     		mov	r0, #1
 338 009c 191C     		mov	r1, r3
 339 009e FFF7FEFF 		bl	ADC_1_CountsTo_mVolts
 340 00a2 031C     		mov	r3, r0
 341 00a4 2380     		strh	r3, [r4]
 342              	.L13:
 143:.\main.c      ****         }    
 144:.\main.c      ****         
 145:.\main.c      ****         /* When conversion of the injection channel has completed */
 146:.\main.c      ****         if((dataReady & ADC_1_INJ_EOC_MASK) != 0u)
 343              		.loc 1 146 0
 344 00a6 414B     		ldr	r3, .L16+16
 345 00a8 1A68     		ldr	r2, [r3]
 346 00aa 1023     		mov	r3, #16
 347 00ac 1340     		and	r3, r2
ARM GAS  C:\Users\moxon\AppData\Local\Temp\ccaddu61.s 			page 10


 348 00ae 74D0     		beq	.L14
 147:.\main.c      ****         {
 148:.\main.c      ****             dataReady &= ~ADC_1_INJ_EOC_MASK;
 349              		.loc 1 148 0
 350 00b0 3E4B     		ldr	r3, .L16+16
 351 00b2 1B68     		ldr	r3, [r3]
 352 00b4 1022     		mov	r2, #16
 353 00b6 191C     		mov	r1, r3
 354 00b8 9143     		bic	r1, r2
 355 00ba 0A1C     		mov	r2, r1
 356 00bc 3B4B     		ldr	r3, .L16+16
 357 00be 1A60     		str	r2, [r3]
 149:.\main.c      **** 
 150:.\main.c      ****             /******************************************************************************
 151:.\main.c      ****             * Adjust data from ADC with respect to Vref value.
 152:.\main.c      ****             * This adjustment is to be done if Vref is set to any other than
 153:.\main.c      ****             * internal 1.024V.
 154:.\main.c      ****             * For more detailed description see Functional Description section
 155:.\main.c      ****             * of DieTemp P4 datasheet.
 156:.\main.c      ****             *******************************************************************************/
 157:.\main.c      ****             ADCCountsCorrected = result[TEMP_CH]*((int16)((float)ADC_VREF_VALUE_V/1.024));
 358              		.loc 1 157 0
 359 00c0 7B1C     		add	r3, r7, #1
 360 00c2 FF33     		add	r3, r3, #255
 361 00c4 3A4A     		ldr	r2, .L16+20
 362 00c6 9288     		ldrh	r2, [r2, #4]
 363 00c8 1A80     		strh	r2, [r3]
 158:.\main.c      ****             
 159:.\main.c      ****             temperature = DieTemp_CountsTo_Celsius(ADCCountsCorrected);
 364              		.loc 1 159 0
 365 00ca 7B1C     		add	r3, r7, #1
 366 00cc FF33     		add	r3, r3, #255
 367 00ce 0022     		mov	r2, #0
 368 00d0 9B5E     		ldrsh	r3, [r3, r2]
 369 00d2 181C     		mov	r0, r3
 370 00d4 FFF7FEFF 		bl	DieTemp_CountsTo_Celsius
 371 00d8 031C     		mov	r3, r0
 372 00da FC21     		mov	r1, #252
 373 00dc C919     		add	r1, r1, r7
 374 00de 0B60     		str	r3, [r1]
 160:.\main.c      **** 
 161:.\main.c      ****             /* Print temperature value to UART */
 162:.\main.c      ****             sprintf(
 163:.\main.c      ****                     uartLine, "Temperature value: %dC \r\n",
 164:.\main.c      ****                     (int16) temperature
 375              		.loc 1 164 0
 376 00e0 FC22     		mov	r2, #252
 377 00e2 D219     		add	r2, r2, r7
 378 00e4 1368     		ldr	r3, [r2]
 379 00e6 9BB2     		uxth	r3, r3
 162:.\main.c      ****             sprintf(
 380              		.loc 1 162 0
 381 00e8 1BB2     		sxth	r3, r3
 382 00ea 391C     		mov	r1, r7
 383 00ec 314A     		ldr	r2, .L16+24
 384 00ee 081C     		mov	r0, r1
 385 00f0 111C     		mov	r1, r2
ARM GAS  C:\Users\moxon\AppData\Local\Temp\ccaddu61.s 			page 11


 386 00f2 1A1C     		mov	r2, r3
 387 00f4 FFF7FEFF 		bl	sprintf
 165:.\main.c      ****                     );
 166:.\main.c      ****             
 167:.\main.c      ****             UART_1_UartPutString(uartLine);
 388              		.loc 1 167 0
 389 00f8 3B1C     		mov	r3, r7
 390 00fa 181C     		mov	r0, r3
 391 00fc FFF7FEFF 		bl	UART_1_UartPutString
 168:.\main.c      ****             
 169:.\main.c      ****             /* Print voltage value of A0 to UART */
 170:.\main.c      ****             sprintf(
 171:.\main.c      ****                 uartLine, "A0 measured voltage: %dmV \r\n",
 172:.\main.c      ****                 (uint16) res
 392              		.loc 1 172 0
 393 0100 FB1D     		add	r3, r7, #7
 394 0102 FF33     		add	r3, r3, #255
 395 0104 1B88     		ldrh	r3, [r3]
 170:.\main.c      ****             sprintf(
 396              		.loc 1 170 0
 397 0106 391C     		mov	r1, r7
 398 0108 2B4A     		ldr	r2, .L16+28
 399 010a 081C     		mov	r0, r1
 400 010c 111C     		mov	r1, r2
 401 010e 1A1C     		mov	r2, r3
 402 0110 FFF7FEFF 		bl	sprintf
 173:.\main.c      ****                 );
 174:.\main.c      ****             
 175:.\main.c      ****             UART_1_UartPutString(uartLine);
 403              		.loc 1 175 0
 404 0114 3B1C     		mov	r3, r7
 405 0116 181C     		mov	r0, r3
 406 0118 FFF7FEFF 		bl	UART_1_UartPutString
 176:.\main.c      ****  
 177:.\main.c      ****             /* Print voltage value of A1 to UART */
 178:.\main.c      ****             sprintf(
 179:.\main.c      ****                 uartLine, "A1 measured voltage: %dmV \r\n",
 180:.\main.c      ****                 (uint16) res1
 407              		.loc 1 180 0
 408 011c 7B1D     		add	r3, r7, #5
 409 011e FF33     		add	r3, r3, #255
 410 0120 1B88     		ldrh	r3, [r3]
 178:.\main.c      ****             sprintf(
 411              		.loc 1 178 0
 412 0122 391C     		mov	r1, r7
 413 0124 254A     		ldr	r2, .L16+32
 414 0126 081C     		mov	r0, r1
 415 0128 111C     		mov	r1, r2
 416 012a 1A1C     		mov	r2, r3
 417 012c FFF7FEFF 		bl	sprintf
 181:.\main.c      ****                 );
 182:.\main.c      ****             
 183:.\main.c      ****             UART_1_UartPutString(uartLine);
 418              		.loc 1 183 0
 419 0130 3B1C     		mov	r3, r7
 420 0132 181C     		mov	r0, r3
 421 0134 FFF7FEFF 		bl	UART_1_UartPutString
ARM GAS  C:\Users\moxon\AppData\Local\Temp\ccaddu61.s 			page 12


 184:.\main.c      **** 
 185:.\main.c      **** 
 186:.\main.c      ****             /* Read the Midi Shield Switches */
 187:.\main.c      ****             SW1 = P1_3_Read();
 422              		.loc 1 187 0
 423 0138 3C1C     		mov	r4, r7
 424 013a FB34     		add	r4, r4, #251
 425 013c FFF7FEFF 		bl	P1_3_Read
 426 0140 031C     		mov	r3, r0
 427 0142 2370     		strb	r3, [r4]
 188:.\main.c      ****             SW2 = P1_4_Read();
 428              		.loc 1 188 0
 429 0144 3C1C     		mov	r4, r7
 430 0146 FA34     		add	r4, r4, #250
 431 0148 FFF7FEFF 		bl	P1_4_Read
 432 014c 031C     		mov	r3, r0
 433 014e 2370     		strb	r3, [r4]
 189:.\main.c      ****             SW3 = P1_5_Read();
 434              		.loc 1 189 0
 435 0150 3C1D     		add	r4, r7, #4
 436 0152 FF34     		add	r4, r4, #255
 437 0154 FFF7FEFF 		bl	P1_5_Read
 438 0158 031C     		mov	r3, r0
 439 015a 2370     		strb	r3, [r4]
 190:.\main.c      ****             
 191:.\main.c      ****             P1_0_Write( SW2 );
 440              		.loc 1 191 0
 441 015c 3B1C     		mov	r3, r7
 442 015e FA33     		add	r3, r3, #250
 443 0160 1B78     		ldrb	r3, [r3]
 444 0162 181C     		mov	r0, r3
 445 0164 FFF7FEFF 		bl	P1_0_Write
 192:.\main.c      ****             P1_1_Write( SW3 );
 446              		.loc 1 192 0
 447 0168 3B1D     		add	r3, r7, #4
 448 016a FF33     		add	r3, r3, #255
 449 016c 1B78     		ldrb	r3, [r3]
 450 016e 181C     		mov	r0, r3
 451 0170 FFF7FEFF 		bl	P1_1_Write
 193:.\main.c      ****             
 194:.\main.c      ****             /* Print switch value to UART */
 195:.\main.c      ****             sprintf(
 452              		.loc 1 195 0
 453 0174 3B1C     		mov	r3, r7
 454 0176 FB33     		add	r3, r3, #251
 455 0178 1A78     		ldrb	r2, [r3]
 456 017a 3B1C     		mov	r3, r7
 457 017c FA33     		add	r3, r3, #250
 458 017e 1B78     		ldrb	r3, [r3]
 459 0180 391D     		add	r1, r7, #4
 460 0182 FF31     		add	r1, r1, #255
 461 0184 0C78     		ldrb	r4, [r1]
 462 0186 381C     		mov	r0, r7
 463 0188 0D49     		ldr	r1, .L16+36
 464 018a 0094     		str	r4, [sp]
 465 018c FFF7FEFF 		bl	sprintf
 196:.\main.c      ****                 uartLine, "Switches: %d, %d, %d \r\n",
ARM GAS  C:\Users\moxon\AppData\Local\Temp\ccaddu61.s 			page 13


 197:.\main.c      ****                 SW1, SW2, SW3
 198:.\main.c      ****                 );
 199:.\main.c      ****             
 200:.\main.c      ****             UART_1_UartPutString(uartLine);
 466              		.loc 1 200 0
 467 0190 3B1C     		mov	r3, r7
 468 0192 181C     		mov	r0, r3
 469 0194 FFF7FEFF 		bl	UART_1_UartPutString
 201:.\main.c      **** 
 202:.\main.c      ****             
 203:.\main.c      ****         }
 204:.\main.c      ****     }
 470              		.loc 1 204 0
 471 0198 60E7     		b	.L15
 472              	.L14:
 473 019a 5FE7     		b	.L15
 474              	.L17:
 475              		.align	2
 476              	.L16:
 477 019c 00000000 		.word	TIMER_1_IRQ_Handler
 478 01a0 00000000 		.word	.LC4
 479 01a4 00000000 		.word	PWM_1_IRQ_Handler
 480 01a8 00000000 		.word	ADC_1_IRQ_Handler
 481 01ac 00000000 		.word	dataReady
 482 01b0 00000000 		.word	result
 483 01b4 1C000000 		.word	.LC10
 484 01b8 38000000 		.word	.LC12
 485 01bc 58000000 		.word	.LC14
 486 01c0 78000000 		.word	.LC16
 487              		.cfi_endproc
 488              	.LFE36:
 489              		.size	main, .-main
 490              		.text
 491              	.Letext0:
 492              		.file 2 "Generated_Source\\PSoC4/cytypes.h"