ARM GAS  C:\Users\moxon\AppData\Local\Temp\ccZ54gjx.s 			page 1


   1              		.cpu cortex-m0
   2              		.fpu softvfp
   3              		.eabi_attribute 20, 1
   4              		.eabi_attribute 21, 1
   5              		.eabi_attribute 23, 3
   6              		.eabi_attribute 24, 1
   7              		.eabi_attribute 25, 1
   8              		.eabi_attribute 26, 1
   9              		.eabi_attribute 30, 6
  10              		.eabi_attribute 34, 0
  11              		.eabi_attribute 18, 4
  12              		.code	16
  13              		.file	"main.c"
  14              		.text
  15              	.Ltext0:
  16              		.cfi_sections	.debug_frame
  17              		.section	.text.TIMER_1_IRQ_Handler,"ax",%progbits
  18              		.align	2
  19              		.global	TIMER_1_IRQ_Handler
  20              		.code	16
  21              		.thumb_func
  22              		.type	TIMER_1_IRQ_Handler, %function
  23              	TIMER_1_IRQ_Handler:
  24              	.LFB33:
  25              		.file 1 ".\\main.c"
   1:.\main.c      **** /*-------------------------------------------------------------*/
   2:.\main.c      **** /* PatternAgents & PDXElectroHax                               */
   3:.\main.c      **** /* Intro to Programmable Logic                                 */
   4:.\main.c      **** /* Lab One - Reset Bootloader using TIMER_1                    */
   5:.\main.c      **** /*-------------------------------------------------------------*/
   6:.\main.c      **** 
   7:.\main.c      **** #include <project.h>
   8:.\main.c      **** 
   9:.\main.c      **** /* Prototype the ISR handler */
  10:.\main.c      **** CY_ISR_PROTO( TIMER_1_IRQ_Handler );
  11:.\main.c      **** 
  12:.\main.c      **** /* Implementation of the ISR handler */
  13:.\main.c      **** CY_ISR( TIMER_1_IRQ_Handler )
  14:.\main.c      **** {
  26              		.loc 1 14 0
  27              		.cfi_startproc
  28 0000 80B5     		push	{r7, lr}
  29              		.cfi_def_cfa_offset 8
  30              		.cfi_offset 7, -8
  31              		.cfi_offset 14, -4
  32 0002 00AF     		add	r7, sp, #0
  33              		.cfi_def_cfa_register 7
  15:.\main.c      ****     Bootloadable_Load(); /* Start the bootloader running now */
  34              		.loc 1 15 0
  35 0004 FFF7FEFF 		bl	Bootloadable_Load
  16:.\main.c      **** }
  36              		.loc 1 16 0
  37 0008 BD46     		mov	sp, r7
  38              		@ sp needed
  39 000a 80BD     		pop	{r7, pc}
  40              		.cfi_endproc
  41              	.LFE33:
ARM GAS  C:\Users\moxon\AppData\Local\Temp\ccZ54gjx.s 			page 2


  42              		.size	TIMER_1_IRQ_Handler, .-TIMER_1_IRQ_Handler
  43              		.section	.text.main,"ax",%progbits
  44              		.align	2
  45              		.global	main
  46              		.code	16
  47              		.thumb_func
  48              		.type	main, %function
  49              	main:
  50              	.LFB34:
  17:.\main.c      ****  
  18:.\main.c      **** int main()
  19:.\main.c      **** {
  51              		.loc 1 19 0
  52              		.cfi_startproc
  53 0000 80B5     		push	{r7, lr}
  54              		.cfi_def_cfa_offset 8
  55              		.cfi_offset 7, -8
  56              		.cfi_offset 14, -4
  57 0002 00AF     		add	r7, sp, #0
  58              		.cfi_def_cfa_register 7
  20:.\main.c      ****     /* Start TIMER_1 - it only counts when SW1 is pressed */
  21:.\main.c      ****     TIMER_1_Start();
  59              		.loc 1 21 0
  60 0004 FFF7FEFF 		bl	TIMER_1_Start
  22:.\main.c      ****     /* Clear any pending Interrupts for TIMER_1 */
  23:.\main.c      ****     TIMER_1_IRQ_ClearPending();
  61              		.loc 1 23 0
  62 0008 FFF7FEFF 		bl	TIMER_1_IRQ_ClearPending
  24:.\main.c      ****     /* Install the Interrupt Service Handler Routine for TIMER_1 */
  25:.\main.c      ****     TIMER_1_IRQ_StartEx( TIMER_1_IRQ_Handler );
  63              		.loc 1 25 0
  64 000c 0A4B     		ldr	r3, .L4
  65 000e 181C     		mov	r0, r3
  66 0010 FFF7FEFF 		bl	TIMER_1_IRQ_StartEx
  26:.\main.c      ****     /* Enable All Interrupts (Global) */
  27:.\main.c      ****     CyGlobalIntEnable;
  67              		.loc 1 27 0
  68              	@ 27 ".\main.c" 1
  69 0014 62B6     		CPSIE   i
  70              	@ 0 "" 2
  71              		.code	16
  72              	.L3:
  28:.\main.c      **** 
  29:.\main.c      ****     /* Main (infinite) loop - use the CPU to blink the LED */
  30:.\main.c      ****     for(;;)
  31:.\main.c      ****     {
  32:.\main.c      ****         /* Turn the Pin On */
  33:.\main.c      ****         P0_6_Write(1); 
  73              		.loc 1 33 0 discriminator 1
  74 0016 0120     		mov	r0, #1
  75 0018 FFF7FEFF 		bl	P0_6_Write
  34:.\main.c      ****         /* Wait for one second = 1000 milliseconds */
  35:.\main.c      ****         CyDelay(1000);
  76              		.loc 1 35 0 discriminator 1
  77 001c FA23     		mov	r3, #250
  78 001e 9B00     		lsl	r3, r3, #2
  79 0020 181C     		mov	r0, r3
ARM GAS  C:\Users\moxon\AppData\Local\Temp\ccZ54gjx.s 			page 3


  80 0022 FFF7FEFF 		bl	CyDelay
  36:.\main.c      ****         /* Turn the Pin Off */
  37:.\main.c      ****         P0_6_Write(0);
  81              		.loc 1 37 0 discriminator 1
  82 0026 0020     		mov	r0, #0
  83 0028 FFF7FEFF 		bl	P0_6_Write
  38:.\main.c      ****         /* Wait for one second = 1000 milliseconds */
  39:.\main.c      ****         CyDelay(1000);
  84              		.loc 1 39 0 discriminator 1
  85 002c FA23     		mov	r3, #250
  86 002e 9B00     		lsl	r3, r3, #2
  87 0030 181C     		mov	r0, r3
  88 0032 FFF7FEFF 		bl	CyDelay
  40:.\main.c      ****     }
  89              		.loc 1 40 0 discriminator 1
  90 0036 EEE7     		b	.L3
  91              	.L5:
  92              		.align	2
  93              	.L4:
  94 0038 00000000 		.word	TIMER_1_IRQ_Handler
  95              		.cfi_endproc
  96              	.LFE34:
  97              		.size	main, .-main
  98              		.text
  99              	.Letext0: