ARM GAS  C:\Users\moxon\AppData\Local\Temp\ccEnqSyz.s 			page 1


   1              		.cpu cortex-m0
   2              		.fpu softvfp
   3              		.eabi_attribute 20, 1
   4              		.eabi_attribute 21, 1
   5              		.eabi_attribute 23, 3
   6              		.eabi_attribute 24, 1
   7              		.eabi_attribute 25, 1
   8              		.eabi_attribute 26, 1
   9              		.eabi_attribute 30, 6
  10              		.eabi_attribute 34, 0
  11              		.eabi_attribute 18, 4
  12              		.code	16
  13              		.file	"main.c"
  14              		.text
  15              	.Ltext0:
  16              		.cfi_sections	.debug_frame
  17              		.global	dataReady
  18              		.bss
  19              		.align	2
  20              		.type	dataReady, %object
  21              		.size	dataReady, 4
  22              	dataReady:
  23 0000 00000000 		.space	4
  24              		.comm	result,4,4
  25              		.global	timer_delay
  26              		.align	2
  27              		.type	timer_delay, %object
  28              		.size	timer_delay, 4
  29              	timer_delay:
  30 0004 00000000 		.space	4
  31              		.section	.text.TIMER_1_IRQ_Handler,"ax",%progbits
  32              		.align	2
  33              		.global	TIMER_1_IRQ_Handler
  34              		.code	16
  35              		.thumb_func
  36              		.type	TIMER_1_IRQ_Handler, %function
  37              	TIMER_1_IRQ_Handler:
  38              	.LFB33:
  39              		.file 1 ".\\main.c"
   1:.\main.c      **** /*-------------------------------------------------------------*/
   2:.\main.c      **** /* PatternAgents & PDXElectroHax                               */
   3:.\main.c      **** /* Intro to Programmable Logic                                 */
   4:.\main.c      **** /* Lab Three - ADC, PWM, UART Example                          */
   5:.\main.c      **** /*-------------------------------------------------------------*/
   6:.\main.c      **** 
   7:.\main.c      **** #include <project.h>
   8:.\main.c      **** #include <stdio.h>
   9:.\main.c      **** #include <ADC_1.h>
  10:.\main.c      **** 
  11:.\main.c      **** #define CH0_N               (0x00u)
  12:.\main.c      **** #define TEMP_CH             (0x01u)
  13:.\main.c      **** #define DELAY_1SEC          (1000u)
  14:.\main.c      **** 
  15:.\main.c      **** /* Get actual Vref. value from ADC SAR sequencer */
  16:.\main.c      **** #define ADC_VREF_VALUE_V    ((float)ADC_1_DEFAULT_VREF_MV_VALUE/1000.0)
  17:.\main.c      **** 
  18:.\main.c      **** volatile uint32 dataReady = 0u;
ARM GAS  C:\Users\moxon\AppData\Local\Temp\ccEnqSyz.s 			page 2


  19:.\main.c      **** volatile int16 result[ADC_1_TOTAL_CHANNELS_NUM];
  20:.\main.c      **** volatile uint32 timer_delay = 0u;
  21:.\main.c      **** 
  22:.\main.c      **** 
  23:.\main.c      **** /* Prototype the TIMER_1 Interrupt Handler */
  24:.\main.c      **** CY_ISR_PROTO( TIMER_1_IRQ_Handler );
  25:.\main.c      **** 
  26:.\main.c      **** /* TIMER_1 Interrupt Handler */
  27:.\main.c      **** CY_ISR( TIMER_1_IRQ_Handler )
  28:.\main.c      **** {
  40              		.loc 1 28 0
  41              		.cfi_startproc
  42 0000 80B5     		push	{r7, lr}
  43              		.cfi_def_cfa_offset 8
  44              		.cfi_offset 7, -8
  45              		.cfi_offset 14, -4
  46 0002 00AF     		add	r7, sp, #0
  47              		.cfi_def_cfa_register 7
  29:.\main.c      ****     Bootloadable_Load(); /* Start the bootloader running now */       
  48              		.loc 1 29 0
  49 0004 FFF7FEFF 		bl	Bootloadable_Load
  30:.\main.c      **** }
  50              		.loc 1 30 0
  51 0008 BD46     		mov	sp, r7
  52              		@ sp needed
  53 000a 80BD     		pop	{r7, pc}
  54              		.cfi_endproc
  55              	.LFE33:
  56              		.size	TIMER_1_IRQ_Handler, .-TIMER_1_IRQ_Handler
  57              		.section	.text.PWM_1_IRQ_Handler,"ax",%progbits
  58              		.align	2
  59              		.global	PWM_1_IRQ_Handler
  60              		.code	16
  61              		.thumb_func
  62              		.type	PWM_1_IRQ_Handler, %function
  63              	PWM_1_IRQ_Handler:
  64              	.LFB34:
  31:.\main.c      **** 
  32:.\main.c      **** /* Prototype the PWM_1 Interrupt Handler */
  33:.\main.c      **** CY_ISR_PROTO( PWM_1_IRQ_Handler );
  34:.\main.c      **** 
  35:.\main.c      **** /* PWM_1 Interrupt Handler */
  36:.\main.c      **** CY_ISR( PWM_1_IRQ_Handler )
  37:.\main.c      **** {
  65              		.loc 1 37 0
  66              		.cfi_startproc
  67 0000 80B5     		push	{r7, lr}
  68              		.cfi_def_cfa_offset 8
  69              		.cfi_offset 7, -8
  70              		.cfi_offset 14, -4
  71 0002 00AF     		add	r7, sp, #0
  72              		.cfi_def_cfa_register 7
  38:.\main.c      ****     timer_delay++;
  73              		.loc 1 38 0
  74 0004 0A4B     		ldr	r3, .L4
  75 0006 1B68     		ldr	r3, [r3]
  76 0008 5A1C     		add	r2, r3, #1
ARM GAS  C:\Users\moxon\AppData\Local\Temp\ccEnqSyz.s 			page 3


  77 000a 094B     		ldr	r3, .L4
  78 000c 1A60     		str	r2, [r3]
  39:.\main.c      ****     
  40:.\main.c      ****     /* Measures temperature once per second */
  41:.\main.c      ****     if(timer_delay > DELAY_1SEC)
  79              		.loc 1 41 0
  80 000e 084B     		ldr	r3, .L4
  81 0010 1A68     		ldr	r2, [r3]
  82 0012 FA23     		mov	r3, #250
  83 0014 9B00     		lsl	r3, r3, #2
  84 0016 9A42     		cmp	r2, r3
  85 0018 04D9     		bls	.L3
  42:.\main.c      ****     {
  43:.\main.c      ****         /* Enables injection channel for next scan */
  44:.\main.c      ****         ADC_1_EnableInjection();
  86              		.loc 1 44 0
  87 001a FFF7FEFF 		bl	ADC_1_EnableInjection
  45:.\main.c      ****         timer_delay = 0u;
  88              		.loc 1 45 0
  89 001e 044B     		ldr	r3, .L4
  90 0020 0022     		mov	r2, #0
  91 0022 1A60     		str	r2, [r3]
  92              	.L3:
  46:.\main.c      ****     }    
  47:.\main.c      ****     
  48:.\main.c      ****     /* Clears interrupt request from terminal count */
  49:.\main.c      ****     PWM_1_ClearInterrupt(PWM_1_INTR_MASK_TC);
  93              		.loc 1 49 0
  94 0024 0120     		mov	r0, #1
  95 0026 FFF7FEFF 		bl	PWM_1_ClearInterrupt
  50:.\main.c      **** }
  96              		.loc 1 50 0
  97 002a BD46     		mov	sp, r7
  98              		@ sp needed
  99 002c 80BD     		pop	{r7, pc}
 100              	.L5:
 101 002e C046     		.align	2
 102              	.L4:
 103 0030 00000000 		.word	timer_delay
 104              		.cfi_endproc
 105              	.LFE34:
 106              		.size	PWM_1_IRQ_Handler, .-PWM_1_IRQ_Handler
 107              		.section	.text.ADC_1_IRQ_Handler,"ax",%progbits
 108              		.align	2
 109              		.global	ADC_1_IRQ_Handler
 110              		.code	16
 111              		.thumb_func
 112              		.type	ADC_1_IRQ_Handler, %function
 113              	ADC_1_IRQ_Handler:
 114              	.LFB35:
  51:.\main.c      **** 
  52:.\main.c      **** /* Prototype the ADC_1 Interrupt Handler */
  53:.\main.c      **** CY_ISR_PROTO( ADC_1_IRQ_Handler );
  54:.\main.c      **** 
  55:.\main.c      **** /* ADC_1 Interrupt Handler */
  56:.\main.c      **** CY_ISR( ADC_1_IRQ_Handler )
  57:.\main.c      **** {
ARM GAS  C:\Users\moxon\AppData\Local\Temp\ccEnqSyz.s 			page 4


 115              		.loc 1 57 0
 116              		.cfi_startproc
 117 0000 80B5     		push	{r7, lr}
 118              		.cfi_def_cfa_offset 8
 119              		.cfi_offset 7, -8
 120              		.cfi_offset 14, -4
 121 0002 82B0     		sub	sp, sp, #8
 122              		.cfi_def_cfa_offset 16
 123 0004 00AF     		add	r7, sp, #0
 124              		.cfi_def_cfa_register 7
  58:.\main.c      ****     uint32 intr_status;
  59:.\main.c      ****     uint32 range_status;
  60:.\main.c      **** 
  61:.\main.c      ****     /* Read interrupt status registers */
  62:.\main.c      ****     intr_status = ADC_1_SAR_INTR_MASKED_REG;
 125              		.loc 1 62 0
 126 0006 1E4B     		ldr	r3, .L10
 127 0008 1B68     		ldr	r3, [r3]
 128 000a 7B60     		str	r3, [r7, #4]
  63:.\main.c      ****     /* Check for End of Scan interrupt */
  64:.\main.c      ****     if((intr_status & ADC_1_EOS_MASK) != 0u)
 129              		.loc 1 64 0
 130 000c 7A68     		ldr	r2, [r7, #4]
 131 000e 0123     		mov	r3, #1
 132 0010 1340     		and	r3, r2
 133 0012 1DD0     		beq	.L7
  65:.\main.c      ****     {
  66:.\main.c      ****         /* Read range detect status */
  67:.\main.c      ****         range_status = ADC_1_SAR_RANGE_INTR_MASKED_REG;
 134              		.loc 1 67 0
 135 0014 1B4B     		ldr	r3, .L10+4
 136 0016 1B68     		ldr	r3, [r3]
 137 0018 3B60     		str	r3, [r7]
  68:.\main.c      ****         /* Verify that the conversion result met the condition Low_Limit <= Result < High_Limit  */
  69:.\main.c      ****         if((range_status & (uint32)(1ul << CH0_N)) != 0u) 
 138              		.loc 1 69 0
 139 001a 3A68     		ldr	r2, [r7]
 140 001c 0123     		mov	r3, #1
 141 001e 1340     		and	r3, r2
 142 0020 0DD0     		beq	.L8
  70:.\main.c      ****         {
  71:.\main.c      ****             /* Read conversion result */
  72:.\main.c      ****             result[CH0_N] = ADC_1_GetResult16(CH0_N);
 143              		.loc 1 72 0
 144 0022 0020     		mov	r0, #0
 145 0024 FFF7FEFF 		bl	ADC_1_GetResult16
 146 0028 031C     		mov	r3, r0
 147 002a 1A1C     		mov	r2, r3
 148 002c 164B     		ldr	r3, .L10+8
 149 002e 1A80     		strh	r2, [r3]
  73:.\main.c      ****             /* Set PWM compare from channel0 */
  74:.\main.c      ****             PWM_1_WriteCompare(result[CH0_N]);
 150              		.loc 1 74 0
 151 0030 154B     		ldr	r3, .L10+8
 152 0032 1B88     		ldrh	r3, [r3]
 153 0034 9BB2     		uxth	r3, r3
 154 0036 1BB2     		sxth	r3, r3
ARM GAS  C:\Users\moxon\AppData\Local\Temp\ccEnqSyz.s 			page 5


 155 0038 181C     		mov	r0, r3
 156 003a FFF7FEFF 		bl	PWM_1_WriteCompare
 157              	.L8:
  75:.\main.c      ****         }    
  76:.\main.c      **** 
  77:.\main.c      ****         /* Clear range detect status */
  78:.\main.c      ****         ADC_1_SAR_RANGE_INTR_REG = range_status;
 158              		.loc 1 78 0
 159 003e 134B     		ldr	r3, .L10+12
 160 0040 3A68     		ldr	r2, [r7]
 161 0042 1A60     		str	r2, [r3]
  79:.\main.c      ****         dataReady |= ADC_1_EOS_MASK;
 162              		.loc 1 79 0
 163 0044 124B     		ldr	r3, .L10+16
 164 0046 1B68     		ldr	r3, [r3]
 165 0048 0122     		mov	r2, #1
 166 004a 1A43     		orr	r2, r3
 167 004c 104B     		ldr	r3, .L10+16
 168 004e 1A60     		str	r2, [r3]
 169              	.L7:
  80:.\main.c      ****     }    
  81:.\main.c      **** 
  82:.\main.c      ****     /* Check for Injection End of Conversion */
  83:.\main.c      ****     if((intr_status & ADC_1_INJ_EOC_MASK) != 0u)
 170              		.loc 1 83 0
 171 0050 7A68     		ldr	r2, [r7, #4]
 172 0052 1023     		mov	r3, #16
 173 0054 1340     		and	r3, r2
 174 0056 0CD0     		beq	.L9
  84:.\main.c      ****     {
  85:.\main.c      ****         result[TEMP_CH] = ADC_1_GetResult16(TEMP_CH);
 175              		.loc 1 85 0
 176 0058 0120     		mov	r0, #1
 177 005a FFF7FEFF 		bl	ADC_1_GetResult16
 178 005e 031C     		mov	r3, r0
 179 0060 1A1C     		mov	r2, r3
 180 0062 094B     		ldr	r3, .L10+8
 181 0064 5A80     		strh	r2, [r3, #2]
  86:.\main.c      ****         dataReady |= ADC_1_INJ_EOC_MASK;
 182              		.loc 1 86 0
 183 0066 0A4B     		ldr	r3, .L10+16
 184 0068 1B68     		ldr	r3, [r3]
 185 006a 1022     		mov	r2, #16
 186 006c 1A43     		orr	r2, r3
 187 006e 084B     		ldr	r3, .L10+16
 188 0070 1A60     		str	r2, [r3]
 189              	.L9:
  87:.\main.c      ****     }    
  88:.\main.c      **** 
  89:.\main.c      ****     /* Clear handled interrupt */
  90:.\main.c      ****     ADC_1_SAR_INTR_REG = intr_status;    
 190              		.loc 1 90 0
 191 0072 084B     		ldr	r3, .L10+20
 192 0074 7A68     		ldr	r2, [r7, #4]
 193 0076 1A60     		str	r2, [r3]
  91:.\main.c      **** }
 194              		.loc 1 91 0
ARM GAS  C:\Users\moxon\AppData\Local\Temp\ccEnqSyz.s 			page 6


 195 0078 BD46     		mov	sp, r7
 196 007a 02B0     		add	sp, sp, #8
 197              		@ sp needed
 198 007c 80BD     		pop	{r7, pc}
 199              	.L11:
 200 007e C046     		.align	2
 201              	.L10:
 202 0080 1C021A40 		.word	1075446300
 203 0084 3C021A40 		.word	1075446332
 204 0088 00000000 		.word	result
 205 008c 30021A40 		.word	1075446320
 206 0090 00000000 		.word	dataReady
 207 0094 10021A40 		.word	1075446288
 208              		.cfi_endproc
 209              	.LFE35:
 210              		.size	ADC_1_IRQ_Handler, .-ADC_1_IRQ_Handler
 211              		.section	.rodata
 212              		.align	2
 213              	.LC4:
 214 0000 0D0A2053 		.ascii	"\015\012 Starting temperature measurement... \015\012"
 214      74617274 
 214      696E6720 
 214      74656D70 
 214      65726174 
 215 0029 00       		.ascii	"\000"
 216 002a 0000     		.align	2
 217              	.LC10:
 218 002c 54656D70 		.ascii	"Temperature value: %dC \015\012\000"
 218      65726174 
 218      75726520 
 218      76616C75 
 218      653A2025 
 219 0046 0000     		.align	2
 220              	.LC12:
 221 0048 41444320 		.ascii	"ADC measured voltage: %dmV \015\012\000"
 221      6D656173 
 221      75726564 
 221      20766F6C 
 221      74616765 
 222 0066 0000     		.section	.text.main,"ax",%progbits
 223              		.align	2
 224              		.global	main
 225              		.code	16
 226              		.thumb_func
 227              		.type	main, %function
 228              	main:
 229              	.LFB36:
  92:.\main.c      **** 
  93:.\main.c      **** int main()
  94:.\main.c      **** {
 230              		.loc 1 94 0
 231              		.cfi_startproc
 232 0000 90B5     		push	{r4, r7, lr}
 233              		.cfi_def_cfa_offset 12
 234              		.cfi_offset 4, -12
 235              		.cfi_offset 7, -8
 236              		.cfi_offset 14, -4
ARM GAS  C:\Users\moxon\AppData\Local\Temp\ccEnqSyz.s 			page 7


 237 0002 C3B0     		sub	sp, sp, #268
 238              		.cfi_def_cfa_offset 280
 239 0004 00AF     		add	r7, sp, #0
 240              		.cfi_def_cfa_register 7
  95:.\main.c      ****     int16 res = 0;
 241              		.loc 1 95 0
 242 0006 FB1D     		add	r3, r7, #7
 243 0008 FF33     		add	r3, r3, #255
 244 000a 0022     		mov	r2, #0
 245 000c 1A80     		strh	r2, [r3]
  96:.\main.c      ****     int32 temperature;
  97:.\main.c      ****     char  uartLine[250];
  98:.\main.c      ****     int16 ADCCountsCorrected;
  99:.\main.c      **** 
 100:.\main.c      ****     /* Start TIMER_1 - it only counts when SW1 is pressed */
 101:.\main.c      ****     TIMER_1_Start();
 246              		.loc 1 101 0
 247 000e FFF7FEFF 		bl	TIMER_1_Start
 102:.\main.c      ****     /* Clear any pending Interrupts for TIMER_1 */
 103:.\main.c      ****     TIMER_1_IRQ_ClearPending();
 248              		.loc 1 103 0
 249 0012 FFF7FEFF 		bl	TIMER_1_IRQ_ClearPending
 104:.\main.c      ****     /* Install the Interrupt Service Handler Routine for TIMER_1 */
 105:.\main.c      ****     TIMER_1_IRQ_StartEx( TIMER_1_IRQ_Handler );
 250              		.loc 1 105 0
 251 0016 3A4B     		ldr	r3, .L16
 252 0018 181C     		mov	r0, r3
 253 001a FFF7FEFF 		bl	TIMER_1_IRQ_StartEx
 106:.\main.c      **** 
 107:.\main.c      ****     /* Initialize the UART */
 108:.\main.c      ****     UART_1_Start();
 254              		.loc 1 108 0
 255 001e FFF7FEFF 		bl	UART_1_Start
 109:.\main.c      ****     UART_1_UartPutString("\r\n Starting temperature measurement... \r\n");
 256              		.loc 1 109 0
 257 0022 384B     		ldr	r3, .L16+4
 258 0024 181C     		mov	r0, r3
 259 0026 FFF7FEFF 		bl	UART_1_UartPutString
 110:.\main.c      **** 
 111:.\main.c      ****     /* Start the PWM */
 112:.\main.c      ****     PWM_1_Start();
 260              		.loc 1 112 0
 261 002a FFF7FEFF 		bl	PWM_1_Start
 113:.\main.c      ****     PWM_1_TriggerCommand(PWM_1_MASK, PWM_1_CMD_START);
 262              		.loc 1 113 0
 263 002e 0220     		mov	r0, #2
 264 0030 1821     		mov	r1, #24
 265 0032 FFF7FEFF 		bl	PWM_1_TriggerCommand
 114:.\main.c      ****     /* Clear any pending Interrupts for PWM_1 */
 115:.\main.c      ****     PWM_1_IRQ_ClearPending();
 266              		.loc 1 115 0
 267 0036 FFF7FEFF 		bl	PWM_1_IRQ_ClearPending
 116:.\main.c      ****     /* Install the Interrupt Service Handler Routine for PWM_1 */
 117:.\main.c      ****     PWM_1_IRQ_StartEx( PWM_1_IRQ_Handler );
 268              		.loc 1 117 0
 269 003a 334B     		ldr	r3, .L16+8
 270 003c 181C     		mov	r0, r3
ARM GAS  C:\Users\moxon\AppData\Local\Temp\ccEnqSyz.s 			page 8


 271 003e FFF7FEFF 		bl	PWM_1_IRQ_StartEx
 118:.\main.c      **** 
 119:.\main.c      ****     /* Init and start sequencing SAR ADC */
 120:.\main.c      ****     ADC_1_Start();
 272              		.loc 1 120 0
 273 0042 FFF7FEFF 		bl	ADC_1_Start
 121:.\main.c      ****     ADC_1_StartConvert();
 274              		.loc 1 121 0
 275 0046 FFF7FEFF 		bl	ADC_1_StartConvert
 122:.\main.c      ****     /* Enable interrupt and set interrupt handler to local routine */
 123:.\main.c      ****     ADC_1_IRQ_StartEx(ADC_1_IRQ_Handler);
 276              		.loc 1 123 0
 277 004a 304B     		ldr	r3, .L16+12
 278 004c 181C     		mov	r0, r3
 279 004e FFF7FEFF 		bl	ADC_1_IRQ_StartEx
 124:.\main.c      ****     
 125:.\main.c      ****     /* Enable All Interrupts (Global) */
 126:.\main.c      ****     CyGlobalIntEnable;
 280              		.loc 1 126 0
 281              	@ 126 ".\main.c" 1
 282 0052 62B6     		CPSIE   i
 283              	@ 0 "" 2
 284              		.code	16
 285              	.L15:
 127:.\main.c      **** 
 128:.\main.c      ****     /* Main (infinite) loop - Does nothing! it's all Hardware! */
 129:.\main.c      ****     for(;;)
 130:.\main.c      ****     {
 131:.\main.c      ****         /* When conversion of sequencing channels has completed */
 132:.\main.c      ****         if((dataReady & ADC_1_EOS_MASK) != 0u)
 286              		.loc 1 132 0
 287 0054 2E4B     		ldr	r3, .L16+16
 288 0056 1A68     		ldr	r2, [r3]
 289 0058 0123     		mov	r3, #1
 290 005a 1340     		and	r3, r2
 291 005c 13D0     		beq	.L13
 133:.\main.c      ****         {
 134:.\main.c      ****             /* Get voltage, measured by ADC */
 135:.\main.c      ****             dataReady &= ~ADC_1_EOS_MASK;
 292              		.loc 1 135 0
 293 005e 2C4B     		ldr	r3, .L16+16
 294 0060 1B68     		ldr	r3, [r3]
 295 0062 0122     		mov	r2, #1
 296 0064 191C     		mov	r1, r3
 297 0066 9143     		bic	r1, r2
 298 0068 0A1C     		mov	r2, r1
 299 006a 294B     		ldr	r3, .L16+16
 300 006c 1A60     		str	r2, [r3]
 136:.\main.c      ****             res = ADC_1_CountsTo_mVolts(CH0_N, result[CH0_N]);
 301              		.loc 1 136 0
 302 006e 294B     		ldr	r3, .L16+20
 303 0070 1B88     		ldrh	r3, [r3]
 304 0072 9BB2     		uxth	r3, r3
 305 0074 FC1D     		add	r4, r7, #7
 306 0076 FF34     		add	r4, r4, #255
 307 0078 1BB2     		sxth	r3, r3
 308 007a 0020     		mov	r0, #0
ARM GAS  C:\Users\moxon\AppData\Local\Temp\ccEnqSyz.s 			page 9


 309 007c 191C     		mov	r1, r3
 310 007e FFF7FEFF 		bl	ADC_1_CountsTo_mVolts
 311 0082 031C     		mov	r3, r0
 312 0084 2380     		strh	r3, [r4]
 313              	.L13:
 137:.\main.c      ****         }    
 138:.\main.c      ****         
 139:.\main.c      ****         /* When conversion of the injection channel has completed */
 140:.\main.c      ****         if((dataReady & ADC_1_INJ_EOC_MASK) != 0u)
 314              		.loc 1 140 0
 315 0086 224B     		ldr	r3, .L16+16
 316 0088 1A68     		ldr	r2, [r3]
 317 008a 1023     		mov	r3, #16
 318 008c 1340     		and	r3, r2
 319 008e 36D0     		beq	.L14
 141:.\main.c      ****         {
 142:.\main.c      ****             dataReady &= ~ADC_1_INJ_EOC_MASK;
 320              		.loc 1 142 0
 321 0090 1F4B     		ldr	r3, .L16+16
 322 0092 1B68     		ldr	r3, [r3]
 323 0094 1022     		mov	r2, #16
 324 0096 191C     		mov	r1, r3
 325 0098 9143     		bic	r1, r2
 326 009a 0A1C     		mov	r2, r1
 327 009c 1C4B     		ldr	r3, .L16+16
 328 009e 1A60     		str	r2, [r3]
 143:.\main.c      **** 
 144:.\main.c      ****             /******************************************************************************
 145:.\main.c      ****             * Adjust data from ADC with respect to Vref value.
 146:.\main.c      ****             * This adjustment is to be done if Vref is set to any other than
 147:.\main.c      ****             * internal 1.024V.
 148:.\main.c      ****             * For more detailed description see Functional Description section
 149:.\main.c      ****             * of DieTemp P4 datasheet.
 150:.\main.c      ****             *******************************************************************************/
 151:.\main.c      ****             ADCCountsCorrected = result[TEMP_CH]*((int16)((float)ADC_VREF_VALUE_V/1.024));
 329              		.loc 1 151 0
 330 00a0 7B1D     		add	r3, r7, #5
 331 00a2 FF33     		add	r3, r3, #255
 332 00a4 1B4A     		ldr	r2, .L16+20
 333 00a6 5288     		ldrh	r2, [r2, #2]
 334 00a8 1A80     		strh	r2, [r3]
 152:.\main.c      ****             
 153:.\main.c      ****             temperature = DieTemp_CountsTo_Celsius(ADCCountsCorrected);
 335              		.loc 1 153 0
 336 00aa 7B1D     		add	r3, r7, #5
 337 00ac FF33     		add	r3, r3, #255
 338 00ae 0022     		mov	r2, #0
 339 00b0 9B5E     		ldrsh	r3, [r3, r2]
 340 00b2 181C     		mov	r0, r3
 341 00b4 FFF7FEFF 		bl	DieTemp_CountsTo_Celsius
 342 00b8 031C     		mov	r3, r0
 343 00ba 791C     		add	r1, r7, #1
 344 00bc FF31     		add	r1, r1, #255
 345 00be 0B60     		str	r3, [r1]
 154:.\main.c      **** 
 155:.\main.c      ****             /* Print temperature value to UART */
 156:.\main.c      ****             sprintf(
ARM GAS  C:\Users\moxon\AppData\Local\Temp\ccEnqSyz.s 			page 10


 157:.\main.c      ****                     uartLine, "Temperature value: %dC \r\n",
 158:.\main.c      ****                     (int16) temperature
 346              		.loc 1 158 0
 347 00c0 7A1C     		add	r2, r7, #1
 348 00c2 FF32     		add	r2, r2, #255
 349 00c4 1368     		ldr	r3, [r2]
 350 00c6 9BB2     		uxth	r3, r3
 156:.\main.c      ****             sprintf(
 351              		.loc 1 156 0
 352 00c8 1BB2     		sxth	r3, r3
 353 00ca 391D     		add	r1, r7, #4
 354 00cc 124A     		ldr	r2, .L16+24
 355 00ce 081C     		mov	r0, r1
 356 00d0 111C     		mov	r1, r2
 357 00d2 1A1C     		mov	r2, r3
 358 00d4 FFF7FEFF 		bl	sprintf
 159:.\main.c      ****                     );
 160:.\main.c      ****             
 161:.\main.c      ****             UART_1_UartPutString(uartLine);
 359              		.loc 1 161 0
 360 00d8 3B1D     		add	r3, r7, #4
 361 00da 181C     		mov	r0, r3
 362 00dc FFF7FEFF 		bl	UART_1_UartPutString
 162:.\main.c      ****             
 163:.\main.c      ****             /* Print voltage value to UART */
 164:.\main.c      ****             sprintf(
 165:.\main.c      ****                 uartLine, "ADC measured voltage: %dmV \r\n",
 166:.\main.c      ****                 (uint16) res
 363              		.loc 1 166 0
 364 00e0 FB1D     		add	r3, r7, #7
 365 00e2 FF33     		add	r3, r3, #255
 366 00e4 1B88     		ldrh	r3, [r3]
 164:.\main.c      ****             sprintf(
 367              		.loc 1 164 0
 368 00e6 391D     		add	r1, r7, #4
 369 00e8 0C4A     		ldr	r2, .L16+28
 370 00ea 081C     		mov	r0, r1
 371 00ec 111C     		mov	r1, r2
 372 00ee 1A1C     		mov	r2, r3
 373 00f0 FFF7FEFF 		bl	sprintf
 167:.\main.c      ****                 );
 168:.\main.c      ****             
 169:.\main.c      ****             UART_1_UartPutString(uartLine);
 374              		.loc 1 169 0
 375 00f4 3B1D     		add	r3, r7, #4
 376 00f6 181C     		mov	r0, r3
 377 00f8 FFF7FEFF 		bl	UART_1_UartPutString
 170:.\main.c      ****         }
 171:.\main.c      ****     }
 378              		.loc 1 171 0
 379 00fc AAE7     		b	.L15
 380              	.L14:
 381 00fe A9E7     		b	.L15
 382              	.L17:
 383              		.align	2
 384              	.L16:
 385 0100 00000000 		.word	TIMER_1_IRQ_Handler
ARM GAS  C:\Users\moxon\AppData\Local\Temp\ccEnqSyz.s 			page 11


 386 0104 00000000 		.word	.LC4
 387 0108 00000000 		.word	PWM_1_IRQ_Handler
 388 010c 00000000 		.word	ADC_1_IRQ_Handler
 389 0110 00000000 		.word	dataReady
 390 0114 00000000 		.word	result
 391 0118 2C000000 		.word	.LC10
 392 011c 48000000 		.word	.LC12
 393              		.cfi_endproc
 394              	.LFE36:
 395              		.size	main, .-main
 396              		.text
 397              	.Letext0:
 398              		.file 2 "Generated_Source\\PSoC4/cytypes.h"