ARM GAS  C:\Users\moxon\AppData\Local\Temp\ccgzGwxu.s 			page 1


   1              		.cpu cortex-m0
   2              		.fpu softvfp
   3              		.eabi_attribute 20, 1
   4              		.eabi_attribute 21, 1
   5              		.eabi_attribute 23, 3
   6              		.eabi_attribute 24, 1
   7              		.eabi_attribute 25, 1
   8              		.eabi_attribute 26, 1
   9              		.eabi_attribute 30, 4
  10              		.eabi_attribute 34, 0
  11              		.eabi_attribute 18, 4
  12              		.code	16
  13              		.file	"UART_UART.c"
  14              		.text
  15              	.Ltext0:
  16              		.cfi_sections	.debug_frame
  17              		.section	.text.UART_UartInit,"ax",%progbits
  18              		.align	1
  19              		.global	UART_UartInit
  20              		.code	16
  21              		.thumb_func
  22              		.type	UART_UartInit, %function
  23              	UART_UartInit:
  24              	.LFB0:
  25              		.file 1 ".\\Generated_Source\\PSoC4\\UART_UART.c"
   1:.\Generated_Source\PSoC4/UART_UART.c **** /*******************************************************************************
   2:.\Generated_Source\PSoC4/UART_UART.c **** * File Name: UART_UART.c
   3:.\Generated_Source\PSoC4/UART_UART.c **** * Version 3.0
   4:.\Generated_Source\PSoC4/UART_UART.c **** *
   5:.\Generated_Source\PSoC4/UART_UART.c **** * Description:
   6:.\Generated_Source\PSoC4/UART_UART.c **** *  This file provides the source code to the API for the SCB Component in
   7:.\Generated_Source\PSoC4/UART_UART.c **** *  UART mode.
   8:.\Generated_Source\PSoC4/UART_UART.c **** *
   9:.\Generated_Source\PSoC4/UART_UART.c **** * Note:
  10:.\Generated_Source\PSoC4/UART_UART.c **** *
  11:.\Generated_Source\PSoC4/UART_UART.c **** *******************************************************************************
  12:.\Generated_Source\PSoC4/UART_UART.c **** * Copyright 2013-2015, Cypress Semiconductor Corporation.  All rights reserved.
  13:.\Generated_Source\PSoC4/UART_UART.c **** * You may use this file only in accordance with the license, terms, conditions,
  14:.\Generated_Source\PSoC4/UART_UART.c **** * disclaimers, and limitations in the end user license agreement accompanying
  15:.\Generated_Source\PSoC4/UART_UART.c **** * the software package with which this file was provided.
  16:.\Generated_Source\PSoC4/UART_UART.c **** *******************************************************************************/
  17:.\Generated_Source\PSoC4/UART_UART.c **** 
  18:.\Generated_Source\PSoC4/UART_UART.c **** #include "UART_PVT.h"
  19:.\Generated_Source\PSoC4/UART_UART.c **** #include "UART_SPI_UART_PVT.h"
  20:.\Generated_Source\PSoC4/UART_UART.c **** 
  21:.\Generated_Source\PSoC4/UART_UART.c **** 
  22:.\Generated_Source\PSoC4/UART_UART.c **** #if(UART_SCB_MODE_UNCONFIG_CONST_CFG)
  23:.\Generated_Source\PSoC4/UART_UART.c **** 
  24:.\Generated_Source\PSoC4/UART_UART.c ****     /***************************************
  25:.\Generated_Source\PSoC4/UART_UART.c ****     *  Configuration Structure Initialization
  26:.\Generated_Source\PSoC4/UART_UART.c ****     ***************************************/
  27:.\Generated_Source\PSoC4/UART_UART.c **** 
  28:.\Generated_Source\PSoC4/UART_UART.c ****     const UART_UART_INIT_STRUCT UART_configUart =
  29:.\Generated_Source\PSoC4/UART_UART.c ****     {
  30:.\Generated_Source\PSoC4/UART_UART.c ****         UART_UART_SUB_MODE,
  31:.\Generated_Source\PSoC4/UART_UART.c ****         UART_UART_DIRECTION,
  32:.\Generated_Source\PSoC4/UART_UART.c ****         UART_UART_DATA_BITS_NUM,
ARM GAS  C:\Users\moxon\AppData\Local\Temp\ccgzGwxu.s 			page 2


  33:.\Generated_Source\PSoC4/UART_UART.c ****         UART_UART_PARITY_TYPE,
  34:.\Generated_Source\PSoC4/UART_UART.c ****         UART_UART_STOP_BITS_NUM,
  35:.\Generated_Source\PSoC4/UART_UART.c ****         UART_UART_OVS_FACTOR,
  36:.\Generated_Source\PSoC4/UART_UART.c ****         UART_UART_IRDA_LOW_POWER,
  37:.\Generated_Source\PSoC4/UART_UART.c ****         UART_UART_MEDIAN_FILTER_ENABLE,
  38:.\Generated_Source\PSoC4/UART_UART.c ****         UART_UART_RETRY_ON_NACK,
  39:.\Generated_Source\PSoC4/UART_UART.c ****         UART_UART_IRDA_POLARITY,
  40:.\Generated_Source\PSoC4/UART_UART.c ****         UART_UART_DROP_ON_PARITY_ERR,
  41:.\Generated_Source\PSoC4/UART_UART.c ****         UART_UART_DROP_ON_FRAME_ERR,
  42:.\Generated_Source\PSoC4/UART_UART.c ****         UART_UART_WAKE_ENABLE,
  43:.\Generated_Source\PSoC4/UART_UART.c ****         0u,
  44:.\Generated_Source\PSoC4/UART_UART.c ****         NULL,
  45:.\Generated_Source\PSoC4/UART_UART.c ****         0u,
  46:.\Generated_Source\PSoC4/UART_UART.c ****         NULL,
  47:.\Generated_Source\PSoC4/UART_UART.c ****         UART_UART_MP_MODE_ENABLE,
  48:.\Generated_Source\PSoC4/UART_UART.c ****         UART_UART_MP_ACCEPT_ADDRESS,
  49:.\Generated_Source\PSoC4/UART_UART.c ****         UART_UART_MP_RX_ADDRESS,
  50:.\Generated_Source\PSoC4/UART_UART.c ****         UART_UART_MP_RX_ADDRESS_MASK,
  51:.\Generated_Source\PSoC4/UART_UART.c ****         (uint32) UART_SCB_IRQ_INTERNAL,
  52:.\Generated_Source\PSoC4/UART_UART.c ****         UART_UART_INTR_RX_MASK,
  53:.\Generated_Source\PSoC4/UART_UART.c ****         UART_UART_RX_TRIGGER_LEVEL,
  54:.\Generated_Source\PSoC4/UART_UART.c ****         UART_UART_INTR_TX_MASK,
  55:.\Generated_Source\PSoC4/UART_UART.c ****         UART_UART_TX_TRIGGER_LEVEL,
  56:.\Generated_Source\PSoC4/UART_UART.c ****         (uint8) UART_UART_BYTE_MODE_ENABLE,
  57:.\Generated_Source\PSoC4/UART_UART.c ****         (uint8) UART_UART_CTS_ENABLE,
  58:.\Generated_Source\PSoC4/UART_UART.c ****         (uint8) UART_UART_CTS_POLARITY,
  59:.\Generated_Source\PSoC4/UART_UART.c ****         (uint8) UART_UART_RTS_POLARITY,
  60:.\Generated_Source\PSoC4/UART_UART.c ****         (uint8) UART_UART_RTS_FIFO_LEVEL
  61:.\Generated_Source\PSoC4/UART_UART.c ****     };
  62:.\Generated_Source\PSoC4/UART_UART.c **** 
  63:.\Generated_Source\PSoC4/UART_UART.c **** 
  64:.\Generated_Source\PSoC4/UART_UART.c ****     /*******************************************************************************
  65:.\Generated_Source\PSoC4/UART_UART.c ****     * Function Name: UART_UartInit
  66:.\Generated_Source\PSoC4/UART_UART.c ****     ********************************************************************************
  67:.\Generated_Source\PSoC4/UART_UART.c ****     *
  68:.\Generated_Source\PSoC4/UART_UART.c ****     * Summary:
  69:.\Generated_Source\PSoC4/UART_UART.c ****     *  Configures the SCB for the UART operation.
  70:.\Generated_Source\PSoC4/UART_UART.c ****     *
  71:.\Generated_Source\PSoC4/UART_UART.c ****     * Parameters:
  72:.\Generated_Source\PSoC4/UART_UART.c ****     *  config:  Pointer to a structure that contains the following ordered list of
  73:.\Generated_Source\PSoC4/UART_UART.c ****     *           fields. These fields match the selections available in the
  74:.\Generated_Source\PSoC4/UART_UART.c ****     *           customizer.
  75:.\Generated_Source\PSoC4/UART_UART.c ****     *
  76:.\Generated_Source\PSoC4/UART_UART.c ****     * Return:
  77:.\Generated_Source\PSoC4/UART_UART.c ****     *  None
  78:.\Generated_Source\PSoC4/UART_UART.c ****     *
  79:.\Generated_Source\PSoC4/UART_UART.c ****     *******************************************************************************/
  80:.\Generated_Source\PSoC4/UART_UART.c ****     void UART_UartInit(const UART_UART_INIT_STRUCT *config)
  81:.\Generated_Source\PSoC4/UART_UART.c ****     {
  82:.\Generated_Source\PSoC4/UART_UART.c ****         uint32 pinsConfig;
  83:.\Generated_Source\PSoC4/UART_UART.c **** 
  84:.\Generated_Source\PSoC4/UART_UART.c ****         if (NULL == config)
  85:.\Generated_Source\PSoC4/UART_UART.c ****         {
  86:.\Generated_Source\PSoC4/UART_UART.c ****             CYASSERT(0u != 0u); /* Halt execution due to bad function parameter */
  87:.\Generated_Source\PSoC4/UART_UART.c ****         }
  88:.\Generated_Source\PSoC4/UART_UART.c ****         else
  89:.\Generated_Source\PSoC4/UART_UART.c ****         {
ARM GAS  C:\Users\moxon\AppData\Local\Temp\ccgzGwxu.s 			page 3


  90:.\Generated_Source\PSoC4/UART_UART.c ****             /* Get direction to configure UART pins: TX, RX or TX+RX */
  91:.\Generated_Source\PSoC4/UART_UART.c ****             pinsConfig  = config->direction;
  92:.\Generated_Source\PSoC4/UART_UART.c **** 
  93:.\Generated_Source\PSoC4/UART_UART.c ****         #if !(UART_CY_SCBIP_V0 || UART_CY_SCBIP_V1)
  94:.\Generated_Source\PSoC4/UART_UART.c ****             /* Add RTS and CTS pins to configure */
  95:.\Generated_Source\PSoC4/UART_UART.c ****             pinsConfig |= (0u != config->rtsRxFifoLevel) ? (UART_UART_RTS_PIN_ENABLE) : (0u);
  96:.\Generated_Source\PSoC4/UART_UART.c ****             pinsConfig |= (0u != config->enableCts)      ? (UART_UART_CTS_PIN_ENABLE) : (0u);
  97:.\Generated_Source\PSoC4/UART_UART.c ****         #endif /* !(UART_CY_SCBIP_V0 || UART_CY_SCBIP_V1) */
  98:.\Generated_Source\PSoC4/UART_UART.c **** 
  99:.\Generated_Source\PSoC4/UART_UART.c ****             /* Configure pins */
 100:.\Generated_Source\PSoC4/UART_UART.c ****             UART_SetPins(UART_SCB_MODE_UART, config->mode, pinsConfig);
 101:.\Generated_Source\PSoC4/UART_UART.c **** 
 102:.\Generated_Source\PSoC4/UART_UART.c ****             /* Store internal configuration */
 103:.\Generated_Source\PSoC4/UART_UART.c ****             UART_scbMode       = (uint8) UART_SCB_MODE_UART;
 104:.\Generated_Source\PSoC4/UART_UART.c ****             UART_scbEnableWake = (uint8) config->enableWake;
 105:.\Generated_Source\PSoC4/UART_UART.c ****             UART_scbEnableIntr = (uint8) config->enableInterrupt;
 106:.\Generated_Source\PSoC4/UART_UART.c **** 
 107:.\Generated_Source\PSoC4/UART_UART.c ****             /* Set RX direction internal variables */
 108:.\Generated_Source\PSoC4/UART_UART.c ****             UART_rxBuffer      =         config->rxBuffer;
 109:.\Generated_Source\PSoC4/UART_UART.c ****             UART_rxDataBits    = (uint8) config->dataBits;
 110:.\Generated_Source\PSoC4/UART_UART.c ****             UART_rxBufferSize  = (uint8) config->rxBufferSize;
 111:.\Generated_Source\PSoC4/UART_UART.c **** 
 112:.\Generated_Source\PSoC4/UART_UART.c ****             /* Set TX direction internal variables */
 113:.\Generated_Source\PSoC4/UART_UART.c ****             UART_txBuffer      =         config->txBuffer;
 114:.\Generated_Source\PSoC4/UART_UART.c ****             UART_txDataBits    = (uint8) config->dataBits;
 115:.\Generated_Source\PSoC4/UART_UART.c ****             UART_txBufferSize  = (uint8) config->txBufferSize;
 116:.\Generated_Source\PSoC4/UART_UART.c **** 
 117:.\Generated_Source\PSoC4/UART_UART.c ****             /* Configure UART interface */
 118:.\Generated_Source\PSoC4/UART_UART.c ****             if(UART_UART_MODE_IRDA == config->mode)
 119:.\Generated_Source\PSoC4/UART_UART.c ****             {
 120:.\Generated_Source\PSoC4/UART_UART.c ****                 /* OVS settings: IrDA */
 121:.\Generated_Source\PSoC4/UART_UART.c ****                 UART_CTRL_REG  = ((0u != config->enableIrdaLowPower) ?
 122:.\Generated_Source\PSoC4/UART_UART.c ****                                                 (UART_UART_GET_CTRL_OVS_IRDA_LP(config->oversample)
 123:.\Generated_Source\PSoC4/UART_UART.c ****                                                 (UART_CTRL_OVS_IRDA_OVS16));
 124:.\Generated_Source\PSoC4/UART_UART.c ****             }
 125:.\Generated_Source\PSoC4/UART_UART.c ****             else
 126:.\Generated_Source\PSoC4/UART_UART.c ****             {
 127:.\Generated_Source\PSoC4/UART_UART.c ****                 /* OVS settings: UART and SmartCard */
 128:.\Generated_Source\PSoC4/UART_UART.c ****                 UART_CTRL_REG  = UART_GET_CTRL_OVS(config->oversample);
 129:.\Generated_Source\PSoC4/UART_UART.c ****             }
 130:.\Generated_Source\PSoC4/UART_UART.c **** 
 131:.\Generated_Source\PSoC4/UART_UART.c ****             UART_CTRL_REG     |= UART_GET_CTRL_BYTE_MODE  (config->enableByteMode)      |
 132:.\Generated_Source\PSoC4/UART_UART.c ****                                              UART_GET_CTRL_ADDR_ACCEPT(config->multiprocAcceptAddr)
 133:.\Generated_Source\PSoC4/UART_UART.c ****                                              UART_CTRL_UART;
 134:.\Generated_Source\PSoC4/UART_UART.c **** 
 135:.\Generated_Source\PSoC4/UART_UART.c ****             /* Configure sub-mode: UART, SmartCard or IrDA */
 136:.\Generated_Source\PSoC4/UART_UART.c ****             UART_UART_CTRL_REG = UART_GET_UART_CTRL_MODE(config->mode);
 137:.\Generated_Source\PSoC4/UART_UART.c **** 
 138:.\Generated_Source\PSoC4/UART_UART.c ****             /* Configure RX direction */
 139:.\Generated_Source\PSoC4/UART_UART.c ****             UART_UART_RX_CTRL_REG = UART_GET_UART_RX_CTRL_MODE(config->stopBits)              |
 140:.\Generated_Source\PSoC4/UART_UART.c ****                                         UART_GET_UART_RX_CTRL_POLARITY(config->enableInvertedRx)   
 141:.\Generated_Source\PSoC4/UART_UART.c ****                                         UART_GET_UART_RX_CTRL_MP_MODE(config->enableMultiproc)     
 142:.\Generated_Source\PSoC4/UART_UART.c ****                                         UART_GET_UART_RX_CTRL_DROP_ON_PARITY_ERR(config->dropOnPari
 143:.\Generated_Source\PSoC4/UART_UART.c ****                                         UART_GET_UART_RX_CTRL_DROP_ON_FRAME_ERR(config->dropOnFrame
 144:.\Generated_Source\PSoC4/UART_UART.c **** 
 145:.\Generated_Source\PSoC4/UART_UART.c ****             if(UART_UART_PARITY_NONE != config->parity)
 146:.\Generated_Source\PSoC4/UART_UART.c ****             {
ARM GAS  C:\Users\moxon\AppData\Local\Temp\ccgzGwxu.s 			page 4


 147:.\Generated_Source\PSoC4/UART_UART.c ****                UART_UART_RX_CTRL_REG |= UART_GET_UART_RX_CTRL_PARITY(config->parity) |
 148:.\Generated_Source\PSoC4/UART_UART.c ****                                                     UART_UART_RX_CTRL_PARITY_ENABLED;
 149:.\Generated_Source\PSoC4/UART_UART.c ****             }
 150:.\Generated_Source\PSoC4/UART_UART.c **** 
 151:.\Generated_Source\PSoC4/UART_UART.c ****             UART_RX_CTRL_REG      = UART_GET_RX_CTRL_DATA_WIDTH(config->dataBits)       |
 152:.\Generated_Source\PSoC4/UART_UART.c ****                                                 UART_GET_RX_CTRL_MEDIAN(config->enableMedianFilter)
 153:.\Generated_Source\PSoC4/UART_UART.c ****                                                 UART_GET_UART_RX_CTRL_ENABLED(config->direction);
 154:.\Generated_Source\PSoC4/UART_UART.c **** 
 155:.\Generated_Source\PSoC4/UART_UART.c ****             UART_RX_FIFO_CTRL_REG = UART_GET_RX_FIFO_CTRL_TRIGGER_LEVEL(config->rxTriggerLevel);
 156:.\Generated_Source\PSoC4/UART_UART.c **** 
 157:.\Generated_Source\PSoC4/UART_UART.c ****             /* Configure MP address */
 158:.\Generated_Source\PSoC4/UART_UART.c ****             UART_RX_MATCH_REG     = UART_GET_RX_MATCH_ADDR(config->multiprocAddr) |
 159:.\Generated_Source\PSoC4/UART_UART.c ****                                                 UART_GET_RX_MATCH_MASK(config->multiprocAddrMask);
 160:.\Generated_Source\PSoC4/UART_UART.c **** 
 161:.\Generated_Source\PSoC4/UART_UART.c ****             /* Configure RX direction */
 162:.\Generated_Source\PSoC4/UART_UART.c ****             UART_UART_TX_CTRL_REG = UART_GET_UART_TX_CTRL_MODE(config->stopBits) |
 163:.\Generated_Source\PSoC4/UART_UART.c ****                                                 UART_GET_UART_TX_CTRL_RETRY_NACK(config->enableRetr
 164:.\Generated_Source\PSoC4/UART_UART.c **** 
 165:.\Generated_Source\PSoC4/UART_UART.c ****             if(UART_UART_PARITY_NONE != config->parity)
 166:.\Generated_Source\PSoC4/UART_UART.c ****             {
 167:.\Generated_Source\PSoC4/UART_UART.c ****                UART_UART_TX_CTRL_REG |= UART_GET_UART_TX_CTRL_PARITY(config->parity) |
 168:.\Generated_Source\PSoC4/UART_UART.c ****                                                     UART_UART_TX_CTRL_PARITY_ENABLED;
 169:.\Generated_Source\PSoC4/UART_UART.c ****             }
 170:.\Generated_Source\PSoC4/UART_UART.c **** 
 171:.\Generated_Source\PSoC4/UART_UART.c ****             UART_TX_CTRL_REG      = UART_GET_TX_CTRL_DATA_WIDTH(config->dataBits)    |
 172:.\Generated_Source\PSoC4/UART_UART.c ****                                                 UART_GET_UART_TX_CTRL_ENABLED(config->direction);
 173:.\Generated_Source\PSoC4/UART_UART.c **** 
 174:.\Generated_Source\PSoC4/UART_UART.c ****             UART_TX_FIFO_CTRL_REG = UART_GET_TX_FIFO_CTRL_TRIGGER_LEVEL(config->txTriggerLevel);
 175:.\Generated_Source\PSoC4/UART_UART.c **** 
 176:.\Generated_Source\PSoC4/UART_UART.c ****         #if !(UART_CY_SCBIP_V0 || UART_CY_SCBIP_V1)
 177:.\Generated_Source\PSoC4/UART_UART.c ****             UART_UART_FLOW_CTRL_REG = UART_GET_UART_FLOW_CTRL_CTS_ENABLE(config->enableCts) | \
 178:.\Generated_Source\PSoC4/UART_UART.c ****                                             UART_GET_UART_FLOW_CTRL_CTS_POLARITY (config->ctsPolari
 179:.\Generated_Source\PSoC4/UART_UART.c ****                                             UART_GET_UART_FLOW_CTRL_RTS_POLARITY (config->rtsPolari
 180:.\Generated_Source\PSoC4/UART_UART.c ****                                             UART_GET_UART_FLOW_CTRL_TRIGGER_LEVEL(config->rtsRxFifo
 181:.\Generated_Source\PSoC4/UART_UART.c ****         #endif /* !(UART_CY_SCBIP_V0 || UART_CY_SCBIP_V1) */
 182:.\Generated_Source\PSoC4/UART_UART.c **** 
 183:.\Generated_Source\PSoC4/UART_UART.c ****             /* Configure interrupt with UART handler but do not enable it */
 184:.\Generated_Source\PSoC4/UART_UART.c ****             CyIntDisable    (UART_ISR_NUMBER);
 185:.\Generated_Source\PSoC4/UART_UART.c ****             CyIntSetPriority(UART_ISR_NUMBER, UART_ISR_PRIORITY);
 186:.\Generated_Source\PSoC4/UART_UART.c ****             (void) CyIntSetVector(UART_ISR_NUMBER, &UART_SPI_UART_ISR);
 187:.\Generated_Source\PSoC4/UART_UART.c **** 
 188:.\Generated_Source\PSoC4/UART_UART.c ****             /* Configure WAKE interrupt */
 189:.\Generated_Source\PSoC4/UART_UART.c ****         #if(UART_UART_RX_WAKEUP_IRQ)
 190:.\Generated_Source\PSoC4/UART_UART.c ****             CyIntDisable    (UART_RX_WAKE_ISR_NUMBER);
 191:.\Generated_Source\PSoC4/UART_UART.c ****             CyIntSetPriority(UART_RX_WAKE_ISR_NUMBER, UART_RX_WAKE_ISR_PRIORITY);
 192:.\Generated_Source\PSoC4/UART_UART.c ****             (void) CyIntSetVector(UART_RX_WAKE_ISR_NUMBER, &UART_UART_WAKEUP_ISR);
 193:.\Generated_Source\PSoC4/UART_UART.c ****         #endif /* (UART_UART_RX_WAKEUP_IRQ) */
 194:.\Generated_Source\PSoC4/UART_UART.c **** 
 195:.\Generated_Source\PSoC4/UART_UART.c ****             /* Configure interrupt sources */
 196:.\Generated_Source\PSoC4/UART_UART.c ****             UART_INTR_I2C_EC_MASK_REG = UART_NO_INTR_SOURCES;
 197:.\Generated_Source\PSoC4/UART_UART.c ****             UART_INTR_SPI_EC_MASK_REG = UART_NO_INTR_SOURCES;
 198:.\Generated_Source\PSoC4/UART_UART.c ****             UART_INTR_SLAVE_MASK_REG  = UART_NO_INTR_SOURCES;
 199:.\Generated_Source\PSoC4/UART_UART.c ****             UART_INTR_MASTER_MASK_REG = UART_NO_INTR_SOURCES;
 200:.\Generated_Source\PSoC4/UART_UART.c ****             UART_INTR_RX_MASK_REG     = config->rxInterruptMask;
 201:.\Generated_Source\PSoC4/UART_UART.c ****             UART_INTR_TX_MASK_REG     = config->txInterruptMask;
 202:.\Generated_Source\PSoC4/UART_UART.c **** 
 203:.\Generated_Source\PSoC4/UART_UART.c ****             /* Clear RX buffer indexes */
ARM GAS  C:\Users\moxon\AppData\Local\Temp\ccgzGwxu.s 			page 5


 204:.\Generated_Source\PSoC4/UART_UART.c ****             UART_rxBufferHead     = 0u;
 205:.\Generated_Source\PSoC4/UART_UART.c ****             UART_rxBufferTail     = 0u;
 206:.\Generated_Source\PSoC4/UART_UART.c ****             UART_rxBufferOverflow = 0u;
 207:.\Generated_Source\PSoC4/UART_UART.c **** 
 208:.\Generated_Source\PSoC4/UART_UART.c ****             /* Clear TX buffer indexes */
 209:.\Generated_Source\PSoC4/UART_UART.c ****             UART_txBufferHead = 0u;
 210:.\Generated_Source\PSoC4/UART_UART.c ****             UART_txBufferTail = 0u;
 211:.\Generated_Source\PSoC4/UART_UART.c ****         }
 212:.\Generated_Source\PSoC4/UART_UART.c ****     }
 213:.\Generated_Source\PSoC4/UART_UART.c **** 
 214:.\Generated_Source\PSoC4/UART_UART.c **** #else
 215:.\Generated_Source\PSoC4/UART_UART.c **** 
 216:.\Generated_Source\PSoC4/UART_UART.c ****     /*******************************************************************************
 217:.\Generated_Source\PSoC4/UART_UART.c ****     * Function Name: UART_UartInit
 218:.\Generated_Source\PSoC4/UART_UART.c ****     ********************************************************************************
 219:.\Generated_Source\PSoC4/UART_UART.c ****     *
 220:.\Generated_Source\PSoC4/UART_UART.c ****     * Summary:
 221:.\Generated_Source\PSoC4/UART_UART.c ****     *  Configures the SCB for the UART operation.
 222:.\Generated_Source\PSoC4/UART_UART.c ****     *
 223:.\Generated_Source\PSoC4/UART_UART.c ****     * Parameters:
 224:.\Generated_Source\PSoC4/UART_UART.c ****     *  None
 225:.\Generated_Source\PSoC4/UART_UART.c ****     *
 226:.\Generated_Source\PSoC4/UART_UART.c ****     * Return:
 227:.\Generated_Source\PSoC4/UART_UART.c ****     *  None
 228:.\Generated_Source\PSoC4/UART_UART.c ****     *
 229:.\Generated_Source\PSoC4/UART_UART.c ****     *******************************************************************************/
 230:.\Generated_Source\PSoC4/UART_UART.c ****     void UART_UartInit(void)
 231:.\Generated_Source\PSoC4/UART_UART.c ****     {
  26              		.loc 1 231 0
  27              		.cfi_startproc
 232:.\Generated_Source\PSoC4/UART_UART.c ****         /* Configure UART interface */
 233:.\Generated_Source\PSoC4/UART_UART.c ****         UART_CTRL_REG = UART_UART_DEFAULT_CTRL;
  28              		.loc 1 233 0
  29 0000 1D4A     		ldr	r2, .L2
  30 0002 1E4B     		ldr	r3, .L2+4
 231:.\Generated_Source\PSoC4/UART_UART.c ****     {
  31              		.loc 1 231 0
  32 0004 10B5     		push	{r4, lr}
  33              		.cfi_def_cfa_offset 8
  34              		.cfi_offset 4, -8
  35              		.cfi_offset 14, -4
  36              		.loc 1 233 0
  37 0006 1A60     		str	r2, [r3]
 234:.\Generated_Source\PSoC4/UART_UART.c **** 
 235:.\Generated_Source\PSoC4/UART_UART.c ****         /* Configure sub-mode: UART, SmartCard or IrDA */
 236:.\Generated_Source\PSoC4/UART_UART.c ****         UART_UART_CTRL_REG = UART_UART_DEFAULT_UART_CTRL;
  38              		.loc 1 236 0
  39 0008 1D4B     		ldr	r3, .L2+8
  40 000a 0024     		mov	r4, #0
  41 000c 1C60     		str	r4, [r3]
 237:.\Generated_Source\PSoC4/UART_UART.c **** 
 238:.\Generated_Source\PSoC4/UART_UART.c ****         /* Configure RX direction */
 239:.\Generated_Source\PSoC4/UART_UART.c ****         UART_UART_RX_CTRL_REG = UART_UART_DEFAULT_UART_RX_CTRL;
  42              		.loc 1 239 0
  43 000e 1D4B     		ldr	r3, .L2+12
  44 0010 0122     		mov	r2, #1
  45 0012 1A60     		str	r2, [r3]
ARM GAS  C:\Users\moxon\AppData\Local\Temp\ccgzGwxu.s 			page 6


 240:.\Generated_Source\PSoC4/UART_UART.c ****         UART_RX_CTRL_REG      = UART_UART_DEFAULT_RX_CTRL;
  46              		.loc 1 240 0
  47 0014 1C49     		ldr	r1, .L2+16
  48 0016 1D4B     		ldr	r3, .L2+20
 241:.\Generated_Source\PSoC4/UART_UART.c ****         UART_RX_FIFO_CTRL_REG = UART_UART_DEFAULT_RX_FIFO_CTRL;
  49              		.loc 1 241 0
  50 0018 0720     		mov	r0, #7
 240:.\Generated_Source\PSoC4/UART_UART.c ****         UART_RX_CTRL_REG      = UART_UART_DEFAULT_RX_CTRL;
  51              		.loc 1 240 0
  52 001a 0B60     		str	r3, [r1]
  53              		.loc 1 241 0
  54 001c 1C49     		ldr	r1, .L2+24
 242:.\Generated_Source\PSoC4/UART_UART.c ****         UART_RX_MATCH_REG     = UART_UART_DEFAULT_RX_MATCH_REG;
 243:.\Generated_Source\PSoC4/UART_UART.c **** 
 244:.\Generated_Source\PSoC4/UART_UART.c ****         /* Configure TX direction */
 245:.\Generated_Source\PSoC4/UART_UART.c ****         UART_UART_TX_CTRL_REG = UART_UART_DEFAULT_UART_TX_CTRL;
 246:.\Generated_Source\PSoC4/UART_UART.c ****         UART_TX_CTRL_REG      = UART_UART_DEFAULT_TX_CTRL;
 247:.\Generated_Source\PSoC4/UART_UART.c ****         UART_TX_FIFO_CTRL_REG = UART_UART_DEFAULT_TX_FIFO_CTRL;
 248:.\Generated_Source\PSoC4/UART_UART.c **** 
 249:.\Generated_Source\PSoC4/UART_UART.c ****     #if !(UART_CY_SCBIP_V0 || UART_CY_SCBIP_V1)
 250:.\Generated_Source\PSoC4/UART_UART.c ****         UART_UART_FLOW_CTRL_REG = UART_UART_DEFAULT_FLOW_CTRL;
 251:.\Generated_Source\PSoC4/UART_UART.c ****     #endif /* !(UART_CY_SCBIP_V0 || UART_CY_SCBIP_V1) */
 252:.\Generated_Source\PSoC4/UART_UART.c **** 
 253:.\Generated_Source\PSoC4/UART_UART.c ****         /* Configure interrupt with UART handler but do not enable it */
 254:.\Generated_Source\PSoC4/UART_UART.c ****     #if(UART_SCB_IRQ_INTERNAL)
 255:.\Generated_Source\PSoC4/UART_UART.c ****         CyIntDisable    (UART_ISR_NUMBER);
 256:.\Generated_Source\PSoC4/UART_UART.c ****         CyIntSetPriority(UART_ISR_NUMBER, UART_ISR_PRIORITY);
 257:.\Generated_Source\PSoC4/UART_UART.c ****         (void) CyIntSetVector(UART_ISR_NUMBER, &UART_SPI_UART_ISR);
 258:.\Generated_Source\PSoC4/UART_UART.c ****     #endif /* (UART_SCB_IRQ_INTERNAL) */
 259:.\Generated_Source\PSoC4/UART_UART.c **** 
 260:.\Generated_Source\PSoC4/UART_UART.c ****         /* Configure WAKE interrupt */
 261:.\Generated_Source\PSoC4/UART_UART.c ****     #if(UART_UART_RX_WAKEUP_IRQ)
 262:.\Generated_Source\PSoC4/UART_UART.c ****         CyIntDisable    (UART_RX_WAKE_ISR_NUMBER);
 263:.\Generated_Source\PSoC4/UART_UART.c ****         CyIntSetPriority(UART_RX_WAKE_ISR_NUMBER, UART_RX_WAKE_ISR_PRIORITY);
 264:.\Generated_Source\PSoC4/UART_UART.c ****         (void) CyIntSetVector(UART_RX_WAKE_ISR_NUMBER, &UART_UART_WAKEUP_ISR);
 265:.\Generated_Source\PSoC4/UART_UART.c ****     #endif /* (UART_UART_RX_WAKEUP_IRQ) */
 266:.\Generated_Source\PSoC4/UART_UART.c **** 
 267:.\Generated_Source\PSoC4/UART_UART.c ****         /* Configure interrupt sources */
 268:.\Generated_Source\PSoC4/UART_UART.c ****         UART_INTR_I2C_EC_MASK_REG = UART_UART_DEFAULT_INTR_I2C_EC_MASK;
 269:.\Generated_Source\PSoC4/UART_UART.c ****         UART_INTR_SPI_EC_MASK_REG = UART_UART_DEFAULT_INTR_SPI_EC_MASK;
 270:.\Generated_Source\PSoC4/UART_UART.c ****         UART_INTR_SLAVE_MASK_REG  = UART_UART_DEFAULT_INTR_SLAVE_MASK;
 271:.\Generated_Source\PSoC4/UART_UART.c ****         UART_INTR_MASTER_MASK_REG = UART_UART_DEFAULT_INTR_MASTER_MASK;
 272:.\Generated_Source\PSoC4/UART_UART.c ****         UART_INTR_RX_MASK_REG     = UART_UART_DEFAULT_INTR_RX_MASK;
 273:.\Generated_Source\PSoC4/UART_UART.c ****         UART_INTR_TX_MASK_REG     = UART_UART_DEFAULT_INTR_TX_MASK;
 274:.\Generated_Source\PSoC4/UART_UART.c **** 
 275:.\Generated_Source\PSoC4/UART_UART.c ****     #if(UART_INTERNAL_RX_SW_BUFFER_CONST)
 276:.\Generated_Source\PSoC4/UART_UART.c ****         UART_rxBufferHead     = 0u;
 277:.\Generated_Source\PSoC4/UART_UART.c ****         UART_rxBufferTail     = 0u;
 278:.\Generated_Source\PSoC4/UART_UART.c ****         UART_rxBufferOverflow = 0u;
 279:.\Generated_Source\PSoC4/UART_UART.c ****     #endif /* (UART_INTERNAL_RX_SW_BUFFER_CONST) */
 280:.\Generated_Source\PSoC4/UART_UART.c **** 
 281:.\Generated_Source\PSoC4/UART_UART.c ****     #if(UART_INTERNAL_TX_SW_BUFFER_CONST)
 282:.\Generated_Source\PSoC4/UART_UART.c ****         UART_txBufferHead = 0u;
 283:.\Generated_Source\PSoC4/UART_UART.c ****         UART_txBufferTail = 0u;
 284:.\Generated_Source\PSoC4/UART_UART.c ****     #endif /* (UART_INTERNAL_TX_SW_BUFFER_CONST) */
 285:.\Generated_Source\PSoC4/UART_UART.c ****     }
  55              		.loc 1 285 0
ARM GAS  C:\Users\moxon\AppData\Local\Temp\ccgzGwxu.s 			page 7


  56              		@ sp needed
 241:.\Generated_Source\PSoC4/UART_UART.c ****         UART_RX_FIFO_CTRL_REG = UART_UART_DEFAULT_RX_FIFO_CTRL;
  57              		.loc 1 241 0
  58 001e 0860     		str	r0, [r1]
 242:.\Generated_Source\PSoC4/UART_UART.c ****         UART_RX_MATCH_REG     = UART_UART_DEFAULT_RX_MATCH_REG;
  59              		.loc 1 242 0
  60 0020 1C49     		ldr	r1, .L2+28
 255:.\Generated_Source\PSoC4/UART_UART.c ****         CyIntDisable    (UART_ISR_NUMBER);
  61              		.loc 1 255 0
  62 0022 0A20     		mov	r0, #10
 242:.\Generated_Source\PSoC4/UART_UART.c ****         UART_RX_MATCH_REG     = UART_UART_DEFAULT_RX_MATCH_REG;
  63              		.loc 1 242 0
  64 0024 0C60     		str	r4, [r1]
 245:.\Generated_Source\PSoC4/UART_UART.c ****         UART_UART_TX_CTRL_REG = UART_UART_DEFAULT_UART_TX_CTRL;
  65              		.loc 1 245 0
  66 0026 1C49     		ldr	r1, .L2+32
  67 0028 0A60     		str	r2, [r1]
 246:.\Generated_Source\PSoC4/UART_UART.c ****         UART_TX_CTRL_REG      = UART_UART_DEFAULT_TX_CTRL;
  68              		.loc 1 246 0
  69 002a 1C4A     		ldr	r2, .L2+36
  70 002c 1360     		str	r3, [r2]
 247:.\Generated_Source\PSoC4/UART_UART.c ****         UART_TX_FIFO_CTRL_REG = UART_UART_DEFAULT_TX_FIFO_CTRL;
  71              		.loc 1 247 0
  72 002e 1C4B     		ldr	r3, .L2+40
  73 0030 1C60     		str	r4, [r3]
 255:.\Generated_Source\PSoC4/UART_UART.c ****         CyIntDisable    (UART_ISR_NUMBER);
  74              		.loc 1 255 0
  75 0032 FFF7FEFF 		bl	CyIntDisable
  76              	.LVL0:
 256:.\Generated_Source\PSoC4/UART_UART.c ****         CyIntSetPriority(UART_ISR_NUMBER, UART_ISR_PRIORITY);
  77              		.loc 1 256 0
  78 0036 0A20     		mov	r0, #10
  79 0038 0321     		mov	r1, #3
  80 003a FFF7FEFF 		bl	CyIntSetPriority
  81              	.LVL1:
 257:.\Generated_Source\PSoC4/UART_UART.c ****         (void) CyIntSetVector(UART_ISR_NUMBER, &UART_SPI_UART_ISR);
  82              		.loc 1 257 0
  83 003e 1949     		ldr	r1, .L2+44
  84 0040 0A20     		mov	r0, #10
  85 0042 FFF7FEFF 		bl	CyIntSetVector
  86              	.LVL2:
 268:.\Generated_Source\PSoC4/UART_UART.c ****         UART_INTR_I2C_EC_MASK_REG = UART_UART_DEFAULT_INTR_I2C_EC_MASK;
  87              		.loc 1 268 0
  88 0046 184B     		ldr	r3, .L2+48
 272:.\Generated_Source\PSoC4/UART_UART.c ****         UART_INTR_RX_MASK_REG     = UART_UART_DEFAULT_INTR_RX_MASK;
  89              		.loc 1 272 0
  90 0048 0422     		mov	r2, #4
 268:.\Generated_Source\PSoC4/UART_UART.c ****         UART_INTR_I2C_EC_MASK_REG = UART_UART_DEFAULT_INTR_I2C_EC_MASK;
  91              		.loc 1 268 0
  92 004a 1C60     		str	r4, [r3]
 269:.\Generated_Source\PSoC4/UART_UART.c ****         UART_INTR_SPI_EC_MASK_REG = UART_UART_DEFAULT_INTR_SPI_EC_MASK;
  93              		.loc 1 269 0
  94 004c 174B     		ldr	r3, .L2+52
  95 004e 1C60     		str	r4, [r3]
 270:.\Generated_Source\PSoC4/UART_UART.c ****         UART_INTR_SLAVE_MASK_REG  = UART_UART_DEFAULT_INTR_SLAVE_MASK;
  96              		.loc 1 270 0
  97 0050 174B     		ldr	r3, .L2+56
ARM GAS  C:\Users\moxon\AppData\Local\Temp\ccgzGwxu.s 			page 8


  98 0052 1C60     		str	r4, [r3]
 271:.\Generated_Source\PSoC4/UART_UART.c ****         UART_INTR_MASTER_MASK_REG = UART_UART_DEFAULT_INTR_MASTER_MASK;
  99              		.loc 1 271 0
 100 0054 174B     		ldr	r3, .L2+60
 101 0056 1C60     		str	r4, [r3]
 272:.\Generated_Source\PSoC4/UART_UART.c ****         UART_INTR_RX_MASK_REG     = UART_UART_DEFAULT_INTR_RX_MASK;
 102              		.loc 1 272 0
 103 0058 174B     		ldr	r3, .L2+64
 104 005a 1A60     		str	r2, [r3]
 273:.\Generated_Source\PSoC4/UART_UART.c ****         UART_INTR_TX_MASK_REG     = UART_UART_DEFAULT_INTR_TX_MASK;
 105              		.loc 1 273 0
 106 005c 174B     		ldr	r3, .L2+68
 107 005e 1C60     		str	r4, [r3]
 276:.\Generated_Source\PSoC4/UART_UART.c ****         UART_rxBufferHead     = 0u;
 108              		.loc 1 276 0
 109 0060 174B     		ldr	r3, .L2+72
 110 0062 1C60     		str	r4, [r3]
 277:.\Generated_Source\PSoC4/UART_UART.c ****         UART_rxBufferTail     = 0u;
 111              		.loc 1 277 0
 112 0064 174B     		ldr	r3, .L2+76
 113 0066 1C60     		str	r4, [r3]
 278:.\Generated_Source\PSoC4/UART_UART.c ****         UART_rxBufferOverflow = 0u;
 114              		.loc 1 278 0
 115 0068 174B     		ldr	r3, .L2+80
 116 006a 1C70     		strb	r4, [r3]
 282:.\Generated_Source\PSoC4/UART_UART.c ****         UART_txBufferHead = 0u;
 117              		.loc 1 282 0
 118 006c 174B     		ldr	r3, .L2+84
 119 006e 1C60     		str	r4, [r3]
 283:.\Generated_Source\PSoC4/UART_UART.c ****         UART_txBufferTail = 0u;
 120              		.loc 1 283 0
 121 0070 174B     		ldr	r3, .L2+88
 122 0072 1C60     		str	r4, [r3]
 123              		.loc 1 285 0
 124 0074 10BD     		pop	{r4, pc}
 125              	.L3:
 126 0076 C046     		.align	2
 127              	.L2:
 128 0078 0B000002 		.word	33554443
 129 007c 00000640 		.word	1074135040
 130 0080 40000640 		.word	1074135104
 131 0084 48000640 		.word	1074135112
 132 0088 00030640 		.word	1074135808
 133 008c 07000080 		.word	-2147483641
 134 0090 04030640 		.word	1074135812
 135 0094 10030640 		.word	1074135824
 136 0098 44000640 		.word	1074135108
 137 009c 00020640 		.word	1074135552
 138 00a0 04020640 		.word	1074135556
 139 00a4 00000000 		.word	UART_SPI_UART_ISR
 140 00a8 880E0640 		.word	1074138760
 141 00ac C80E0640 		.word	1074138824
 142 00b0 480F0640 		.word	1074138952
 143 00b4 080F0640 		.word	1074138888
 144 00b8 C80F0640 		.word	1074139080
 145 00bc 880F0640 		.word	1074139016
 146 00c0 00000000 		.word	UART_rxBufferHead
ARM GAS  C:\Users\moxon\AppData\Local\Temp\ccgzGwxu.s 			page 9


 147 00c4 00000000 		.word	UART_rxBufferTail
 148 00c8 00000000 		.word	UART_rxBufferOverflow
 149 00cc 00000000 		.word	UART_txBufferHead
 150 00d0 00000000 		.word	UART_txBufferTail
 151              		.cfi_endproc
 152              	.LFE0:
 153              		.size	UART_UartInit, .-UART_UartInit
 154              		.section	.text.UART_UartPostEnable,"ax",%progbits
 155              		.align	1
 156              		.global	UART_UartPostEnable
 157              		.code	16
 158              		.thumb_func
 159              		.type	UART_UartPostEnable, %function
 160              	UART_UartPostEnable:
 161              	.LFB1:
 286:.\Generated_Source\PSoC4/UART_UART.c **** #endif /* (UART_SCB_MODE_UNCONFIG_CONST_CFG) */
 287:.\Generated_Source\PSoC4/UART_UART.c **** 
 288:.\Generated_Source\PSoC4/UART_UART.c **** 
 289:.\Generated_Source\PSoC4/UART_UART.c **** /*******************************************************************************
 290:.\Generated_Source\PSoC4/UART_UART.c **** * Function Name: UART_UartPostEnable
 291:.\Generated_Source\PSoC4/UART_UART.c **** ********************************************************************************
 292:.\Generated_Source\PSoC4/UART_UART.c **** *
 293:.\Generated_Source\PSoC4/UART_UART.c **** * Summary:
 294:.\Generated_Source\PSoC4/UART_UART.c **** *  Restores HSIOM settings for the UART output pins (TX and/or RTS) to be 
 295:.\Generated_Source\PSoC4/UART_UART.c **** *  controlled by the SCB UART.
 296:.\Generated_Source\PSoC4/UART_UART.c **** *
 297:.\Generated_Source\PSoC4/UART_UART.c **** * Parameters:
 298:.\Generated_Source\PSoC4/UART_UART.c **** *  None
 299:.\Generated_Source\PSoC4/UART_UART.c **** *
 300:.\Generated_Source\PSoC4/UART_UART.c **** * Return:
 301:.\Generated_Source\PSoC4/UART_UART.c **** *  None
 302:.\Generated_Source\PSoC4/UART_UART.c **** *
 303:.\Generated_Source\PSoC4/UART_UART.c **** *******************************************************************************/
 304:.\Generated_Source\PSoC4/UART_UART.c **** void UART_UartPostEnable(void)
 305:.\Generated_Source\PSoC4/UART_UART.c **** {
 162              		.loc 1 305 0
 163              		.cfi_startproc
 306:.\Generated_Source\PSoC4/UART_UART.c **** #if (UART_SCB_MODE_UNCONFIG_CONST_CFG)
 307:.\Generated_Source\PSoC4/UART_UART.c **** 
 308:.\Generated_Source\PSoC4/UART_UART.c **** #if (UART_TX_SDA_MISO_PIN)
 309:.\Generated_Source\PSoC4/UART_UART.c ****     if (UART_CHECK_TX_SDA_MISO_PIN_USED)
 310:.\Generated_Source\PSoC4/UART_UART.c ****     {
 311:.\Generated_Source\PSoC4/UART_UART.c ****         /* Set SCB UART to drive the output pin */
 312:.\Generated_Source\PSoC4/UART_UART.c ****         UART_SET_HSIOM_SEL(UART_TX_SDA_MISO_HSIOM_REG, UART_TX_SDA_MISO_HSIOM_MASK,
 313:.\Generated_Source\PSoC4/UART_UART.c ****                                        UART_TX_SDA_MISO_HSIOM_POS, UART_HSIOM_UART_SEL);
 314:.\Generated_Source\PSoC4/UART_UART.c ****     }
 315:.\Generated_Source\PSoC4/UART_UART.c **** #endif /* (UART_TX_SDA_MISO_PIN_PIN) */
 316:.\Generated_Source\PSoC4/UART_UART.c **** 
 317:.\Generated_Source\PSoC4/UART_UART.c **** #if (UART_SS0_PIN)
 318:.\Generated_Source\PSoC4/UART_UART.c ****     if (UART_CHECK_SS0_PIN_USED)
 319:.\Generated_Source\PSoC4/UART_UART.c ****     {
 320:.\Generated_Source\PSoC4/UART_UART.c ****         /* Set SCB UART to drive the output pin */
 321:.\Generated_Source\PSoC4/UART_UART.c ****         UART_SET_HSIOM_SEL(UART_SS0_HSIOM_REG, UART_SS0_HSIOM_MASK,
 322:.\Generated_Source\PSoC4/UART_UART.c ****                                        UART_SS0_HSIOM_POS, UART_HSIOM_UART_SEL);
 323:.\Generated_Source\PSoC4/UART_UART.c ****     }
 324:.\Generated_Source\PSoC4/UART_UART.c **** #endif /* (UART_SS0_PIN) */
 325:.\Generated_Source\PSoC4/UART_UART.c **** 
ARM GAS  C:\Users\moxon\AppData\Local\Temp\ccgzGwxu.s 			page 10


 326:.\Generated_Source\PSoC4/UART_UART.c **** #else
 327:.\Generated_Source\PSoC4/UART_UART.c **** #if (UART_UART_TX_PIN)
 328:.\Generated_Source\PSoC4/UART_UART.c ****      /* Set SCB UART to drive the output pin */
 329:.\Generated_Source\PSoC4/UART_UART.c ****     UART_SET_HSIOM_SEL(UART_TX_HSIOM_REG, UART_TX_HSIOM_MASK,
 164              		.loc 1 329 0
 165 0000 034B     		ldr	r3, .L5
 166 0002 F021     		mov	r1, #240
 167 0004 1A68     		ldr	r2, [r3]
 330:.\Generated_Source\PSoC4/UART_UART.c ****                                    UART_TX_HSIOM_POS, UART_HSIOM_UART_SEL);
 331:.\Generated_Source\PSoC4/UART_UART.c **** #endif /* (UART_UART_TX_PIN) */
 332:.\Generated_Source\PSoC4/UART_UART.c **** 
 333:.\Generated_Source\PSoC4/UART_UART.c **** #if (UART_UART_RTS_PIN)
 334:.\Generated_Source\PSoC4/UART_UART.c ****     /* Set SCB UART to drive the output pin */
 335:.\Generated_Source\PSoC4/UART_UART.c ****     UART_SET_HSIOM_SEL(UART_RTS_HSIOM_REG, UART_RTS_HSIOM_MASK,
 336:.\Generated_Source\PSoC4/UART_UART.c ****                                    UART_RTS_HSIOM_POS, UART_HSIOM_UART_SEL);
 337:.\Generated_Source\PSoC4/UART_UART.c **** #endif /* (UART_UART_RTS_PIN) */
 338:.\Generated_Source\PSoC4/UART_UART.c **** 
 339:.\Generated_Source\PSoC4/UART_UART.c **** #endif /* (UART_SCB_MODE_UNCONFIG_CONST_CFG) */
 340:.\Generated_Source\PSoC4/UART_UART.c **** }
 168              		.loc 1 340 0
 169              		@ sp needed
 329:.\Generated_Source\PSoC4/UART_UART.c ****     UART_SET_HSIOM_SEL(UART_TX_HSIOM_REG, UART_TX_HSIOM_MASK,
 170              		.loc 1 329 0
 171 0006 8A43     		bic	r2, r1
 172 0008 9021     		mov	r1, #144
 173 000a 0A43     		orr	r2, r1
 174 000c 1A60     		str	r2, [r3]
 175              		.loc 1 340 0
 176 000e 7047     		bx	lr
 177              	.L6:
 178              		.align	2
 179              	.L5:
 180 0010 10000140 		.word	1073807376
 181              		.cfi_endproc
 182              	.LFE1:
 183              		.size	UART_UartPostEnable, .-UART_UartPostEnable
 184              		.section	.text.UART_UartStop,"ax",%progbits
 185              		.align	1
 186              		.global	UART_UartStop
 187              		.code	16
 188              		.thumb_func
 189              		.type	UART_UartStop, %function
 190              	UART_UartStop:
 191              	.LFB2:
 341:.\Generated_Source\PSoC4/UART_UART.c **** 
 342:.\Generated_Source\PSoC4/UART_UART.c **** 
 343:.\Generated_Source\PSoC4/UART_UART.c **** /*******************************************************************************
 344:.\Generated_Source\PSoC4/UART_UART.c **** * Function Name: UART_UartStop
 345:.\Generated_Source\PSoC4/UART_UART.c **** ********************************************************************************
 346:.\Generated_Source\PSoC4/UART_UART.c **** *
 347:.\Generated_Source\PSoC4/UART_UART.c **** * Summary:
 348:.\Generated_Source\PSoC4/UART_UART.c **** *  Changes the HSIOM settings for the UART output pins (TX and/or RTS) to keep
 349:.\Generated_Source\PSoC4/UART_UART.c **** *  them inactive after the block is disabled. The output pins are controlled by
 350:.\Generated_Source\PSoC4/UART_UART.c **** *  the GPIO data register. Also, the function disables the skip start feature to
 351:.\Generated_Source\PSoC4/UART_UART.c **** *  not cause it to trigger after the component is enabled.
 352:.\Generated_Source\PSoC4/UART_UART.c **** *
 353:.\Generated_Source\PSoC4/UART_UART.c **** * Parameters:
ARM GAS  C:\Users\moxon\AppData\Local\Temp\ccgzGwxu.s 			page 11


 354:.\Generated_Source\PSoC4/UART_UART.c **** *  None
 355:.\Generated_Source\PSoC4/UART_UART.c **** *
 356:.\Generated_Source\PSoC4/UART_UART.c **** * Return:
 357:.\Generated_Source\PSoC4/UART_UART.c **** *  None
 358:.\Generated_Source\PSoC4/UART_UART.c **** *
 359:.\Generated_Source\PSoC4/UART_UART.c **** *******************************************************************************/
 360:.\Generated_Source\PSoC4/UART_UART.c **** void UART_UartStop(void)
 361:.\Generated_Source\PSoC4/UART_UART.c **** {
 192              		.loc 1 361 0
 193              		.cfi_startproc
 362:.\Generated_Source\PSoC4/UART_UART.c **** #if(UART_SCB_MODE_UNCONFIG_CONST_CFG)
 363:.\Generated_Source\PSoC4/UART_UART.c ****     #if (UART_TX_SDA_MISO_PIN)
 364:.\Generated_Source\PSoC4/UART_UART.c ****         if (UART_CHECK_TX_SDA_MISO_PIN_USED)
 365:.\Generated_Source\PSoC4/UART_UART.c ****         {
 366:.\Generated_Source\PSoC4/UART_UART.c ****             /* Set GPIO to drive output pin */
 367:.\Generated_Source\PSoC4/UART_UART.c ****             UART_SET_HSIOM_SEL(UART_TX_SDA_MISO_HSIOM_REG, UART_TX_SDA_MISO_HSIOM_MASK,
 368:.\Generated_Source\PSoC4/UART_UART.c ****                                            UART_TX_SDA_MISO_HSIOM_POS, UART_HSIOM_GPIO_SEL);
 369:.\Generated_Source\PSoC4/UART_UART.c ****         }
 370:.\Generated_Source\PSoC4/UART_UART.c ****     #endif /* (UART_TX_SDA_MISO_PIN_PIN) */
 371:.\Generated_Source\PSoC4/UART_UART.c **** 
 372:.\Generated_Source\PSoC4/UART_UART.c ****     #if (UART_SS0_PIN)
 373:.\Generated_Source\PSoC4/UART_UART.c ****         if (UART_CHECK_SS0_PIN_USED)
 374:.\Generated_Source\PSoC4/UART_UART.c ****         {
 375:.\Generated_Source\PSoC4/UART_UART.c ****             /* Set output pin state after block is disabled */
 376:.\Generated_Source\PSoC4/UART_UART.c ****             UART_spi_ss0_Write(UART_GET_UART_RTS_INACTIVE);
 377:.\Generated_Source\PSoC4/UART_UART.c **** 
 378:.\Generated_Source\PSoC4/UART_UART.c ****             /* Set GPIO to drive output pin */
 379:.\Generated_Source\PSoC4/UART_UART.c ****             UART_SET_HSIOM_SEL(UART_SS0_HSIOM_REG, UART_SS0_HSIOM_MASK,
 380:.\Generated_Source\PSoC4/UART_UART.c ****                                            UART_SS0_HSIOM_POS, UART_HSIOM_GPIO_SEL);
 381:.\Generated_Source\PSoC4/UART_UART.c ****         }
 382:.\Generated_Source\PSoC4/UART_UART.c ****     #endif /* (UART_SS0_PIN) */
 383:.\Generated_Source\PSoC4/UART_UART.c **** 
 384:.\Generated_Source\PSoC4/UART_UART.c **** #else
 385:.\Generated_Source\PSoC4/UART_UART.c ****     #if (UART_UART_TX_PIN)
 386:.\Generated_Source\PSoC4/UART_UART.c ****         /* Set GPIO to drive output pin */
 387:.\Generated_Source\PSoC4/UART_UART.c ****         UART_SET_HSIOM_SEL(UART_TX_HSIOM_REG, UART_TX_HSIOM_MASK,
 194              		.loc 1 387 0
 195 0000 024B     		ldr	r3, .L8
 196 0002 F021     		mov	r1, #240
 197 0004 1A68     		ldr	r2, [r3]
 388:.\Generated_Source\PSoC4/UART_UART.c ****                                        UART_TX_HSIOM_POS, UART_HSIOM_GPIO_SEL);
 389:.\Generated_Source\PSoC4/UART_UART.c ****     #endif /* (UART_UART_TX_PIN) */
 390:.\Generated_Source\PSoC4/UART_UART.c **** 
 391:.\Generated_Source\PSoC4/UART_UART.c ****     #if (UART_UART_RTS_PIN)
 392:.\Generated_Source\PSoC4/UART_UART.c ****         /* Set output pin state after block is disabled */
 393:.\Generated_Source\PSoC4/UART_UART.c ****         UART_rts_Write(UART_GET_UART_RTS_INACTIVE);
 394:.\Generated_Source\PSoC4/UART_UART.c **** 
 395:.\Generated_Source\PSoC4/UART_UART.c ****         /* Set GPIO to drive output pin */
 396:.\Generated_Source\PSoC4/UART_UART.c ****         UART_SET_HSIOM_SEL(UART_RTS_HSIOM_REG, UART_RTS_HSIOM_MASK,
 397:.\Generated_Source\PSoC4/UART_UART.c ****                                        UART_RTS_HSIOM_POS, UART_HSIOM_GPIO_SEL);
 398:.\Generated_Source\PSoC4/UART_UART.c ****     #endif /* (UART_UART_RTS_PIN) */
 399:.\Generated_Source\PSoC4/UART_UART.c **** 
 400:.\Generated_Source\PSoC4/UART_UART.c **** #endif /* (UART_SCB_MODE_UNCONFIG_CONST_CFG) */
 401:.\Generated_Source\PSoC4/UART_UART.c **** 
 402:.\Generated_Source\PSoC4/UART_UART.c **** #if (UART_UART_WAKE_ENABLE_CONST)
 403:.\Generated_Source\PSoC4/UART_UART.c ****     /* Disable skip start feature used for wakeup */
 404:.\Generated_Source\PSoC4/UART_UART.c ****     UART_UART_RX_CTRL_REG &= (uint32) ~UART_UART_RX_CTRL_SKIP_START;
ARM GAS  C:\Users\moxon\AppData\Local\Temp\ccgzGwxu.s 			page 12


 405:.\Generated_Source\PSoC4/UART_UART.c **** #endif /* (UART_UART_WAKE_ENABLE_CONST) */
 406:.\Generated_Source\PSoC4/UART_UART.c **** }
 198              		.loc 1 406 0
 199              		@ sp needed
 387:.\Generated_Source\PSoC4/UART_UART.c ****         UART_SET_HSIOM_SEL(UART_TX_HSIOM_REG, UART_TX_HSIOM_MASK,
 200              		.loc 1 387 0
 201 0006 8A43     		bic	r2, r1
 202 0008 1A60     		str	r2, [r3]
 203              		.loc 1 406 0
 204 000a 7047     		bx	lr
 205              	.L9:
 206              		.align	2
 207              	.L8:
 208 000c 10000140 		.word	1073807376
 209              		.cfi_endproc
 210              	.LFE2:
 211              		.size	UART_UartStop, .-UART_UartStop
 212              		.section	.text.UART_UartSetRxAddress,"ax",%progbits
 213              		.align	1
 214              		.global	UART_UartSetRxAddress
 215              		.code	16
 216              		.thumb_func
 217              		.type	UART_UartSetRxAddress, %function
 218              	UART_UartSetRxAddress:
 219              	.LFB3:
 407:.\Generated_Source\PSoC4/UART_UART.c **** 
 408:.\Generated_Source\PSoC4/UART_UART.c **** 
 409:.\Generated_Source\PSoC4/UART_UART.c **** /*******************************************************************************
 410:.\Generated_Source\PSoC4/UART_UART.c **** * Function Name: UART_UartSetRxAddress
 411:.\Generated_Source\PSoC4/UART_UART.c **** ********************************************************************************
 412:.\Generated_Source\PSoC4/UART_UART.c **** *
 413:.\Generated_Source\PSoC4/UART_UART.c **** * Summary:
 414:.\Generated_Source\PSoC4/UART_UART.c **** *  Sets the hardware detectable receiver address for the UART in the
 415:.\Generated_Source\PSoC4/UART_UART.c **** *  Multiprocessor mode.
 416:.\Generated_Source\PSoC4/UART_UART.c **** *
 417:.\Generated_Source\PSoC4/UART_UART.c **** * Parameters:
 418:.\Generated_Source\PSoC4/UART_UART.c **** *  address: Address for hardware address detection.
 419:.\Generated_Source\PSoC4/UART_UART.c **** *
 420:.\Generated_Source\PSoC4/UART_UART.c **** * Return:
 421:.\Generated_Source\PSoC4/UART_UART.c **** *  None
 422:.\Generated_Source\PSoC4/UART_UART.c **** *
 423:.\Generated_Source\PSoC4/UART_UART.c **** *******************************************************************************/
 424:.\Generated_Source\PSoC4/UART_UART.c **** void UART_UartSetRxAddress(uint32 address)
 425:.\Generated_Source\PSoC4/UART_UART.c **** {
 220              		.loc 1 425 0
 221              		.cfi_startproc
 222              	.LVL3:
 426:.\Generated_Source\PSoC4/UART_UART.c ****      uint32 matchReg;
 427:.\Generated_Source\PSoC4/UART_UART.c **** 
 428:.\Generated_Source\PSoC4/UART_UART.c ****     matchReg = UART_RX_MATCH_REG;
 223              		.loc 1 428 0
 224 0000 034B     		ldr	r3, .L11
 429:.\Generated_Source\PSoC4/UART_UART.c **** 
 430:.\Generated_Source\PSoC4/UART_UART.c ****     matchReg &= ((uint32) ~UART_RX_MATCH_ADDR_MASK); /* Clear address bits */
 225              		.loc 1 430 0
 226 0002 FF22     		mov	r2, #255
 428:.\Generated_Source\PSoC4/UART_UART.c ****     matchReg = UART_RX_MATCH_REG;
ARM GAS  C:\Users\moxon\AppData\Local\Temp\ccgzGwxu.s 			page 13


 227              		.loc 1 428 0
 228 0004 1968     		ldr	r1, [r3]
 229              	.LVL4:
 431:.\Generated_Source\PSoC4/UART_UART.c ****     matchReg |= ((uint32)  (address & UART_RX_MATCH_ADDR_MASK)); /* Set address  */
 432:.\Generated_Source\PSoC4/UART_UART.c **** 
 433:.\Generated_Source\PSoC4/UART_UART.c ****     UART_RX_MATCH_REG = matchReg;
 434:.\Generated_Source\PSoC4/UART_UART.c **** }
 230              		.loc 1 434 0
 231              		@ sp needed
 430:.\Generated_Source\PSoC4/UART_UART.c ****     matchReg &= ((uint32) ~UART_RX_MATCH_ADDR_MASK); /* Clear address bits */
 232              		.loc 1 430 0
 233 0006 9143     		bic	r1, r2
 234              	.LVL5:
 431:.\Generated_Source\PSoC4/UART_UART.c ****     matchReg |= ((uint32)  (address & UART_RX_MATCH_ADDR_MASK)); /* Set address  */
 235              		.loc 1 431 0
 236 0008 0240     		and	r2, r0
 237 000a 0A43     		orr	r2, r1
 238              	.LVL6:
 433:.\Generated_Source\PSoC4/UART_UART.c ****     UART_RX_MATCH_REG = matchReg;
 239              		.loc 1 433 0
 240 000c 1A60     		str	r2, [r3]
 241              		.loc 1 434 0
 242 000e 7047     		bx	lr
 243              	.L12:
 244              		.align	2
 245              	.L11:
 246 0010 10030640 		.word	1074135824
 247              		.cfi_endproc
 248              	.LFE3:
 249              		.size	UART_UartSetRxAddress, .-UART_UartSetRxAddress
 250              		.section	.text.UART_UartSetRxAddressMask,"ax",%progbits
 251              		.align	1
 252              		.global	UART_UartSetRxAddressMask
 253              		.code	16
 254              		.thumb_func
 255              		.type	UART_UartSetRxAddressMask, %function
 256              	UART_UartSetRxAddressMask:
 257              	.LFB4:
 435:.\Generated_Source\PSoC4/UART_UART.c **** 
 436:.\Generated_Source\PSoC4/UART_UART.c **** 
 437:.\Generated_Source\PSoC4/UART_UART.c **** /*******************************************************************************
 438:.\Generated_Source\PSoC4/UART_UART.c **** * Function Name: UART_UartSetRxAddressMask
 439:.\Generated_Source\PSoC4/UART_UART.c **** ********************************************************************************
 440:.\Generated_Source\PSoC4/UART_UART.c **** *
 441:.\Generated_Source\PSoC4/UART_UART.c **** * Summary:
 442:.\Generated_Source\PSoC4/UART_UART.c **** *  Sets the hardware address mask for the UART in the Multiprocessor mode.
 443:.\Generated_Source\PSoC4/UART_UART.c **** *
 444:.\Generated_Source\PSoC4/UART_UART.c **** * Parameters:
 445:.\Generated_Source\PSoC4/UART_UART.c **** *  addressMask: Address mask.
 446:.\Generated_Source\PSoC4/UART_UART.c **** *   0 - address bit does not care while comparison.
 447:.\Generated_Source\PSoC4/UART_UART.c **** *   1 - address bit is significant while comparison.
 448:.\Generated_Source\PSoC4/UART_UART.c **** *
 449:.\Generated_Source\PSoC4/UART_UART.c **** * Return:
 450:.\Generated_Source\PSoC4/UART_UART.c **** *  None
 451:.\Generated_Source\PSoC4/UART_UART.c **** *
 452:.\Generated_Source\PSoC4/UART_UART.c **** *******************************************************************************/
 453:.\Generated_Source\PSoC4/UART_UART.c **** void UART_UartSetRxAddressMask(uint32 addressMask)
ARM GAS  C:\Users\moxon\AppData\Local\Temp\ccgzGwxu.s 			page 14


 454:.\Generated_Source\PSoC4/UART_UART.c **** {
 258              		.loc 1 454 0
 259              		.cfi_startproc
 260              	.LVL7:
 455:.\Generated_Source\PSoC4/UART_UART.c ****     uint32 matchReg;
 456:.\Generated_Source\PSoC4/UART_UART.c **** 
 457:.\Generated_Source\PSoC4/UART_UART.c ****     matchReg = UART_RX_MATCH_REG;
 261              		.loc 1 457 0
 262 0000 034B     		ldr	r3, .L14
 458:.\Generated_Source\PSoC4/UART_UART.c **** 
 459:.\Generated_Source\PSoC4/UART_UART.c ****     matchReg &= ((uint32) ~UART_RX_MATCH_MASK_MASK); /* Clear address mask bits */
 263              		.loc 1 459 0
 264 0002 044A     		ldr	r2, .L14+4
 457:.\Generated_Source\PSoC4/UART_UART.c ****     matchReg = UART_RX_MATCH_REG;
 265              		.loc 1 457 0
 266 0004 1968     		ldr	r1, [r3]
 267              	.LVL8:
 460:.\Generated_Source\PSoC4/UART_UART.c ****     matchReg |= ((uint32) (addressMask << UART_RX_MATCH_MASK_POS));
 268              		.loc 1 460 0
 269 0006 0004     		lsl	r0, r0, #16
 270              	.LVL9:
 459:.\Generated_Source\PSoC4/UART_UART.c ****     matchReg &= ((uint32) ~UART_RX_MATCH_MASK_MASK); /* Clear address mask bits */
 271              		.loc 1 459 0
 272 0008 0A40     		and	r2, r1
 273              	.LVL10:
 274              		.loc 1 460 0
 275 000a 1043     		orr	r0, r2
 276              	.LVL11:
 461:.\Generated_Source\PSoC4/UART_UART.c **** 
 462:.\Generated_Source\PSoC4/UART_UART.c ****     UART_RX_MATCH_REG = matchReg;
 277              		.loc 1 462 0
 278 000c 1860     		str	r0, [r3]
 463:.\Generated_Source\PSoC4/UART_UART.c **** }
 279              		.loc 1 463 0
 280              		@ sp needed
 281 000e 7047     		bx	lr
 282              	.L15:
 283              		.align	2
 284              	.L14:
 285 0010 10030640 		.word	1074135824
 286 0014 FFFF00FF 		.word	-16711681
 287              		.cfi_endproc
 288              	.LFE4:
 289              		.size	UART_UartSetRxAddressMask, .-UART_UartSetRxAddressMask
 290              		.section	.text.UART_UartGetChar,"ax",%progbits
 291              		.align	1
 292              		.global	UART_UartGetChar
 293              		.code	16
 294              		.thumb_func
 295              		.type	UART_UartGetChar, %function
 296              	UART_UartGetChar:
 297              	.LFB5:
 464:.\Generated_Source\PSoC4/UART_UART.c **** 
 465:.\Generated_Source\PSoC4/UART_UART.c **** 
 466:.\Generated_Source\PSoC4/UART_UART.c **** #if(UART_UART_RX_DIRECTION)
 467:.\Generated_Source\PSoC4/UART_UART.c ****     /*******************************************************************************
 468:.\Generated_Source\PSoC4/UART_UART.c ****     * Function Name: UART_UartGetChar
ARM GAS  C:\Users\moxon\AppData\Local\Temp\ccgzGwxu.s 			page 15


 469:.\Generated_Source\PSoC4/UART_UART.c ****     ********************************************************************************
 470:.\Generated_Source\PSoC4/UART_UART.c ****     *
 471:.\Generated_Source\PSoC4/UART_UART.c ****     * Summary:
 472:.\Generated_Source\PSoC4/UART_UART.c ****     *  Retrieves the next data element from the receive buffer.
 473:.\Generated_Source\PSoC4/UART_UART.c ****     *  This function is designed for ASCII characters and returns a char
 474:.\Generated_Source\PSoC4/UART_UART.c ****     *  where 1 to 255 are valid characters and 0 indicates an error occurred or
 475:.\Generated_Source\PSoC4/UART_UART.c ****     *  no data present.
 476:.\Generated_Source\PSoC4/UART_UART.c ****     *  - The RX software buffer is disabled: returns the data element
 477:.\Generated_Source\PSoC4/UART_UART.c ****     *    retrieved from the RX FIFO.
 478:.\Generated_Source\PSoC4/UART_UART.c ****     *    Undefined data will be returned if the RX FIFO is empty.
 479:.\Generated_Source\PSoC4/UART_UART.c ****     *  - The RX software buffer is enabled: returns the data element from
 480:.\Generated_Source\PSoC4/UART_UART.c ****     *    the software receive buffer.
 481:.\Generated_Source\PSoC4/UART_UART.c ****     *
 482:.\Generated_Source\PSoC4/UART_UART.c ****     * Parameters:
 483:.\Generated_Source\PSoC4/UART_UART.c ****     *  None
 484:.\Generated_Source\PSoC4/UART_UART.c ****     *
 485:.\Generated_Source\PSoC4/UART_UART.c ****     * Return:
 486:.\Generated_Source\PSoC4/UART_UART.c ****     *  The next data element from the receive buffer.
 487:.\Generated_Source\PSoC4/UART_UART.c ****     *  ASCII character values from 1 to 255 are valid.
 488:.\Generated_Source\PSoC4/UART_UART.c ****     *  A returned zero signifies an error condition or no data available.
 489:.\Generated_Source\PSoC4/UART_UART.c ****     *
 490:.\Generated_Source\PSoC4/UART_UART.c ****     * Side Effects:
 491:.\Generated_Source\PSoC4/UART_UART.c ****     *  The errors bits may not correspond with reading characters due to RX FIFO
 492:.\Generated_Source\PSoC4/UART_UART.c ****     *  and software buffer usage.
 493:.\Generated_Source\PSoC4/UART_UART.c ****     *  RX software buffer is enabled: The internal software buffer overflow
 494:.\Generated_Source\PSoC4/UART_UART.c ****     *  does not treat as an error condition.
 495:.\Generated_Source\PSoC4/UART_UART.c ****     *  Check SCB_rxBufferOverflow to capture that error condition.
 496:.\Generated_Source\PSoC4/UART_UART.c ****     *
 497:.\Generated_Source\PSoC4/UART_UART.c ****     *******************************************************************************/
 498:.\Generated_Source\PSoC4/UART_UART.c ****     uint32 UART_UartGetChar(void)
 499:.\Generated_Source\PSoC4/UART_UART.c ****     {
 298              		.loc 1 499 0
 299              		.cfi_startproc
 300              	.LVL12:
 301 0000 08B5     		push	{r3, lr}
 302              		.cfi_def_cfa_offset 8
 303              		.cfi_offset 3, -8
 304              		.cfi_offset 14, -4
 500:.\Generated_Source\PSoC4/UART_UART.c ****         uint32 rxData = 0u;
 501:.\Generated_Source\PSoC4/UART_UART.c **** 
 502:.\Generated_Source\PSoC4/UART_UART.c ****         /* Reads data only if there is data to read */
 503:.\Generated_Source\PSoC4/UART_UART.c ****         if (0u != UART_SpiUartGetRxBufferSize())
 305              		.loc 1 503 0
 306 0002 FFF7FEFF 		bl	UART_SpiUartGetRxBufferSize
 307              	.LVL13:
 308 0006 031C     		mov	r3, r0
 500:.\Generated_Source\PSoC4/UART_UART.c ****         uint32 rxData = 0u;
 309              		.loc 1 500 0
 310 0008 0020     		mov	r0, #0
 311              		.loc 1 503 0
 312 000a 8342     		cmp	r3, r0
 313 000c 01D0     		beq	.L17
 504:.\Generated_Source\PSoC4/UART_UART.c ****         {
 505:.\Generated_Source\PSoC4/UART_UART.c ****             rxData = UART_SpiUartReadRxData();
 314              		.loc 1 505 0
 315 000e FFF7FEFF 		bl	UART_SpiUartReadRxData
 316              	.LVL14:
ARM GAS  C:\Users\moxon\AppData\Local\Temp\ccgzGwxu.s 			page 16


 317              	.L17:
 506:.\Generated_Source\PSoC4/UART_UART.c ****         }
 507:.\Generated_Source\PSoC4/UART_UART.c **** 
 508:.\Generated_Source\PSoC4/UART_UART.c ****         if (UART_CHECK_INTR_RX(UART_INTR_RX_ERR))
 318              		.loc 1 508 0
 319 0012 044B     		ldr	r3, .L25
 320 0014 D822     		mov	r2, #216
 321 0016 1968     		ldr	r1, [r3]
 322 0018 9200     		lsl	r2, r2, #2
 323 001a 1142     		tst	r1, r2
 324 001c 01D0     		beq	.L18
 325              	.LVL15:
 509:.\Generated_Source\PSoC4/UART_UART.c ****         {
 510:.\Generated_Source\PSoC4/UART_UART.c ****             rxData = 0u; /* Error occurred: returns zero */
 511:.\Generated_Source\PSoC4/UART_UART.c ****             UART_ClearRxInterruptSource(UART_INTR_RX_ERR);
 326              		.loc 1 511 0
 327 001e 1A60     		str	r2, [r3]
 510:.\Generated_Source\PSoC4/UART_UART.c ****             rxData = 0u; /* Error occurred: returns zero */
 328              		.loc 1 510 0
 329 0020 0020     		mov	r0, #0
 330              	.LVL16:
 331              	.L18:
 512:.\Generated_Source\PSoC4/UART_UART.c ****         }
 513:.\Generated_Source\PSoC4/UART_UART.c **** 
 514:.\Generated_Source\PSoC4/UART_UART.c ****         return (rxData);
 515:.\Generated_Source\PSoC4/UART_UART.c ****     }
 332              		.loc 1 515 0
 333              		@ sp needed
 334 0022 08BD     		pop	{r3, pc}
 335              	.L26:
 336              		.align	2
 337              	.L25:
 338 0024 C00F0640 		.word	1074139072
 339              		.cfi_endproc
 340              	.LFE5:
 341              		.size	UART_UartGetChar, .-UART_UartGetChar
 342              		.section	.text.UART_UartGetByte,"ax",%progbits
 343              		.align	1
 344              		.global	UART_UartGetByte
 345              		.code	16
 346              		.thumb_func
 347              		.type	UART_UartGetByte, %function
 348              	UART_UartGetByte:
 349              	.LFB6:
 516:.\Generated_Source\PSoC4/UART_UART.c **** 
 517:.\Generated_Source\PSoC4/UART_UART.c **** 
 518:.\Generated_Source\PSoC4/UART_UART.c ****     /*******************************************************************************
 519:.\Generated_Source\PSoC4/UART_UART.c ****     * Function Name: UART_UartGetByte
 520:.\Generated_Source\PSoC4/UART_UART.c ****     ********************************************************************************
 521:.\Generated_Source\PSoC4/UART_UART.c ****     *
 522:.\Generated_Source\PSoC4/UART_UART.c ****     * Summary:
 523:.\Generated_Source\PSoC4/UART_UART.c ****     *  Retrieves the next data element from the receive buffer, returns the
 524:.\Generated_Source\PSoC4/UART_UART.c ****     *  received byte and error condition.
 525:.\Generated_Source\PSoC4/UART_UART.c ****     *   - The RX software buffer is disabled: returns the data element retrieved
 526:.\Generated_Source\PSoC4/UART_UART.c ****     *     from the RX FIFO. Undefined data will be returned if the RX FIFO is
 527:.\Generated_Source\PSoC4/UART_UART.c ****     *     empty.
 528:.\Generated_Source\PSoC4/UART_UART.c ****     *   - The RX software buffer is enabled: returns data element from the
ARM GAS  C:\Users\moxon\AppData\Local\Temp\ccgzGwxu.s 			page 17


 529:.\Generated_Source\PSoC4/UART_UART.c ****     *     software receive buffer.
 530:.\Generated_Source\PSoC4/UART_UART.c ****     *
 531:.\Generated_Source\PSoC4/UART_UART.c ****     * Parameters:
 532:.\Generated_Source\PSoC4/UART_UART.c ****     *  None
 533:.\Generated_Source\PSoC4/UART_UART.c ****     *
 534:.\Generated_Source\PSoC4/UART_UART.c ****     * Return:
 535:.\Generated_Source\PSoC4/UART_UART.c ****     *  Bits 7-0 contain the next data element from the receive buffer and
 536:.\Generated_Source\PSoC4/UART_UART.c ****     *  other bits contain the error condition.
 537:.\Generated_Source\PSoC4/UART_UART.c ****     *
 538:.\Generated_Source\PSoC4/UART_UART.c ****     * Side Effects:
 539:.\Generated_Source\PSoC4/UART_UART.c ****     *  The errors bits may not correspond with reading characters due to RX FIFO
 540:.\Generated_Source\PSoC4/UART_UART.c ****     *  and software buffer usage.
 541:.\Generated_Source\PSoC4/UART_UART.c ****     *  RX software buffer is disabled: The internal software buffer overflow
 542:.\Generated_Source\PSoC4/UART_UART.c ****     *  is not returned as status by this function.
 543:.\Generated_Source\PSoC4/UART_UART.c ****     *  Check SCB_rxBufferOverflow to capture that error condition.
 544:.\Generated_Source\PSoC4/UART_UART.c ****     *
 545:.\Generated_Source\PSoC4/UART_UART.c ****     *******************************************************************************/
 546:.\Generated_Source\PSoC4/UART_UART.c ****     uint32 UART_UartGetByte(void)
 547:.\Generated_Source\PSoC4/UART_UART.c ****     {
 350              		.loc 1 547 0
 351              		.cfi_startproc
 352 0000 10B5     		push	{r4, lr}
 353              		.cfi_def_cfa_offset 8
 354              		.cfi_offset 4, -8
 355              		.cfi_offset 14, -4
 548:.\Generated_Source\PSoC4/UART_UART.c ****         uint32 rxData;
 549:.\Generated_Source\PSoC4/UART_UART.c ****         uint32 tmpStatus;
 550:.\Generated_Source\PSoC4/UART_UART.c **** 
 551:.\Generated_Source\PSoC4/UART_UART.c ****         #if (UART_CHECK_RX_SW_BUFFER)
 552:.\Generated_Source\PSoC4/UART_UART.c ****         {
 553:.\Generated_Source\PSoC4/UART_UART.c ****             UART_DisableInt();
 356              		.loc 1 553 0
 357 0002 0A20     		mov	r0, #10
 358 0004 FFF7FEFF 		bl	CyIntDisable
 359              	.LVL17:
 554:.\Generated_Source\PSoC4/UART_UART.c ****         }
 555:.\Generated_Source\PSoC4/UART_UART.c ****         #endif
 556:.\Generated_Source\PSoC4/UART_UART.c **** 
 557:.\Generated_Source\PSoC4/UART_UART.c ****         if (0u != UART_SpiUartGetRxBufferSize())
 360              		.loc 1 557 0
 361 0008 FFF7FEFF 		bl	UART_SpiUartGetRxBufferSize
 362              	.LVL18:
 363 000c 0028     		cmp	r0, #0
 364 000e 06D0     		beq	.L28
 558:.\Generated_Source\PSoC4/UART_UART.c ****         {
 559:.\Generated_Source\PSoC4/UART_UART.c ****             /* Enables interrupt to receive more bytes: at least one byte is in
 560:.\Generated_Source\PSoC4/UART_UART.c ****             * buffer.
 561:.\Generated_Source\PSoC4/UART_UART.c ****             */
 562:.\Generated_Source\PSoC4/UART_UART.c ****             #if (UART_CHECK_RX_SW_BUFFER)
 563:.\Generated_Source\PSoC4/UART_UART.c ****             {            
 564:.\Generated_Source\PSoC4/UART_UART.c ****                 UART_EnableInt();
 365              		.loc 1 564 0
 366 0010 0A20     		mov	r0, #10
 367 0012 FFF7FEFF 		bl	CyIntEnable
 368              	.LVL19:
 565:.\Generated_Source\PSoC4/UART_UART.c ****             }
 566:.\Generated_Source\PSoC4/UART_UART.c ****             #endif
ARM GAS  C:\Users\moxon\AppData\Local\Temp\ccgzGwxu.s 			page 18


 567:.\Generated_Source\PSoC4/UART_UART.c **** 
 568:.\Generated_Source\PSoC4/UART_UART.c ****             /* Get received byte */
 569:.\Generated_Source\PSoC4/UART_UART.c ****             rxData = UART_SpiUartReadRxData();
 369              		.loc 1 569 0
 370 0016 FFF7FEFF 		bl	UART_SpiUartReadRxData
 371              	.LVL20:
 372 001a 041C     		mov	r4, r0
 373              	.LVL21:
 374 001c 04E0     		b	.L29
 375              	.LVL22:
 376              	.L28:
 570:.\Generated_Source\PSoC4/UART_UART.c ****         }
 571:.\Generated_Source\PSoC4/UART_UART.c ****         else
 572:.\Generated_Source\PSoC4/UART_UART.c ****         {
 573:.\Generated_Source\PSoC4/UART_UART.c ****             /* Reads a byte directly from RX FIFO: underflow is raised in the case
 574:.\Generated_Source\PSoC4/UART_UART.c ****             * of empty. Otherwise the first received byte will be read.
 575:.\Generated_Source\PSoC4/UART_UART.c ****             */
 576:.\Generated_Source\PSoC4/UART_UART.c ****             rxData = UART_RX_FIFO_RD_REG;
 377              		.loc 1 576 0
 378 001e 074B     		ldr	r3, .L30
 577:.\Generated_Source\PSoC4/UART_UART.c **** 
 578:.\Generated_Source\PSoC4/UART_UART.c ****             /* Enables interrupt to receive more bytes.
 579:.\Generated_Source\PSoC4/UART_UART.c ****             * The RX_NOT_EMPTY interrupt is cleared by the interrupt routine
 580:.\Generated_Source\PSoC4/UART_UART.c ****             * in case the byte was received and read by code above.
 581:.\Generated_Source\PSoC4/UART_UART.c ****             */
 582:.\Generated_Source\PSoC4/UART_UART.c ****             #if (UART_CHECK_RX_SW_BUFFER)
 583:.\Generated_Source\PSoC4/UART_UART.c ****             {
 584:.\Generated_Source\PSoC4/UART_UART.c ****                 UART_EnableInt();
 379              		.loc 1 584 0
 380 0020 0A20     		mov	r0, #10
 576:.\Generated_Source\PSoC4/UART_UART.c ****             rxData = UART_RX_FIFO_RD_REG;
 381              		.loc 1 576 0
 382 0022 1C68     		ldr	r4, [r3]
 383              	.LVL23:
 384              		.loc 1 584 0
 385 0024 FFF7FEFF 		bl	CyIntEnable
 386              	.LVL24:
 387              	.L29:
 585:.\Generated_Source\PSoC4/UART_UART.c ****             }
 586:.\Generated_Source\PSoC4/UART_UART.c ****             #endif
 587:.\Generated_Source\PSoC4/UART_UART.c ****         }
 588:.\Generated_Source\PSoC4/UART_UART.c **** 
 589:.\Generated_Source\PSoC4/UART_UART.c ****         /* Get and clear RX error mask */
 590:.\Generated_Source\PSoC4/UART_UART.c ****         tmpStatus = (UART_GetRxInterruptSource() & UART_INTR_RX_ERR);
 388              		.loc 1 590 0
 389 0028 054A     		ldr	r2, .L30+4
 591:.\Generated_Source\PSoC4/UART_UART.c ****         UART_ClearRxInterruptSource(UART_INTR_RX_ERR);
 390              		.loc 1 591 0
 391 002a D823     		mov	r3, #216
 590:.\Generated_Source\PSoC4/UART_UART.c ****         tmpStatus = (UART_GetRxInterruptSource() & UART_INTR_RX_ERR);
 392              		.loc 1 590 0
 393 002c 1068     		ldr	r0, [r2]
 394              	.LVL25:
 395              		.loc 1 591 0
 396 002e 9B00     		lsl	r3, r3, #2
 397 0030 1360     		str	r3, [r2]
 398              	.LVL26:
ARM GAS  C:\Users\moxon\AppData\Local\Temp\ccgzGwxu.s 			page 19


 590:.\Generated_Source\PSoC4/UART_UART.c ****         tmpStatus = (UART_GetRxInterruptSource() & UART_INTR_RX_ERR);
 399              		.loc 1 590 0
 400 0032 0340     		and	r3, r0
 592:.\Generated_Source\PSoC4/UART_UART.c **** 
 593:.\Generated_Source\PSoC4/UART_UART.c ****         /* Puts together data and error status:
 594:.\Generated_Source\PSoC4/UART_UART.c ****         * MP mode and accept address: 9th bit is set to notify mark.
 595:.\Generated_Source\PSoC4/UART_UART.c ****         */
 596:.\Generated_Source\PSoC4/UART_UART.c ****         rxData |= ((uint32) (tmpStatus << 8u));
 401              		.loc 1 596 0
 402 0034 1802     		lsl	r0, r3, #8
 403              	.LVL27:
 404 0036 2043     		orr	r0, r4
 597:.\Generated_Source\PSoC4/UART_UART.c **** 
 598:.\Generated_Source\PSoC4/UART_UART.c ****         return (rxData);
 599:.\Generated_Source\PSoC4/UART_UART.c ****     }
 405              		.loc 1 599 0
 406              		@ sp needed
 407 0038 10BD     		pop	{r4, pc}
 408              	.L31:
 409 003a C046     		.align	2
 410              	.L30:
 411 003c 40030640 		.word	1074135872
 412 0040 C00F0640 		.word	1074139072
 413              		.cfi_endproc
 414              	.LFE6:
 415              		.size	UART_UartGetByte, .-UART_UartGetByte
 416              		.section	.text.UART_UartPutString,"ax",%progbits
 417              		.align	1
 418              		.global	UART_UartPutString
 419              		.code	16
 420              		.thumb_func
 421              		.type	UART_UartPutString, %function
 422              	UART_UartPutString:
 423              	.LFB7:
 600:.\Generated_Source\PSoC4/UART_UART.c **** 
 601:.\Generated_Source\PSoC4/UART_UART.c **** 
 602:.\Generated_Source\PSoC4/UART_UART.c ****     #if !(UART_CY_SCBIP_V0 || UART_CY_SCBIP_V1)
 603:.\Generated_Source\PSoC4/UART_UART.c ****         /*******************************************************************************
 604:.\Generated_Source\PSoC4/UART_UART.c ****         * Function Name: UART_UartSetRtsPolarity
 605:.\Generated_Source\PSoC4/UART_UART.c ****         ********************************************************************************
 606:.\Generated_Source\PSoC4/UART_UART.c ****         *
 607:.\Generated_Source\PSoC4/UART_UART.c ****         * Summary:
 608:.\Generated_Source\PSoC4/UART_UART.c ****         *  Sets active polarity of RTS output signal.
 609:.\Generated_Source\PSoC4/UART_UART.c ****         *
 610:.\Generated_Source\PSoC4/UART_UART.c ****         * Parameters:
 611:.\Generated_Source\PSoC4/UART_UART.c ****         *  polarity: Active polarity of RTS output signal.
 612:.\Generated_Source\PSoC4/UART_UART.c ****         *   UART_UART_RTS_ACTIVE_LOW  - RTS signal is active low.
 613:.\Generated_Source\PSoC4/UART_UART.c ****         *   UART_UART_RTS_ACTIVE_HIGH - RTS signal is active high.
 614:.\Generated_Source\PSoC4/UART_UART.c ****         *
 615:.\Generated_Source\PSoC4/UART_UART.c ****         * Return:
 616:.\Generated_Source\PSoC4/UART_UART.c ****         *  None
 617:.\Generated_Source\PSoC4/UART_UART.c ****         *
 618:.\Generated_Source\PSoC4/UART_UART.c ****         *******************************************************************************/
 619:.\Generated_Source\PSoC4/UART_UART.c ****         void UART_UartSetRtsPolarity(uint32 polarity)
 620:.\Generated_Source\PSoC4/UART_UART.c ****         {
 621:.\Generated_Source\PSoC4/UART_UART.c ****             if(0u != polarity)
 622:.\Generated_Source\PSoC4/UART_UART.c ****             {
ARM GAS  C:\Users\moxon\AppData\Local\Temp\ccgzGwxu.s 			page 20


 623:.\Generated_Source\PSoC4/UART_UART.c ****                 UART_UART_FLOW_CTRL_REG |= (uint32)  UART_UART_FLOW_CTRL_RTS_POLARITY;
 624:.\Generated_Source\PSoC4/UART_UART.c ****             }
 625:.\Generated_Source\PSoC4/UART_UART.c ****             else
 626:.\Generated_Source\PSoC4/UART_UART.c ****             {
 627:.\Generated_Source\PSoC4/UART_UART.c ****                 UART_UART_FLOW_CTRL_REG &= (uint32) ~UART_UART_FLOW_CTRL_RTS_POLARITY;
 628:.\Generated_Source\PSoC4/UART_UART.c ****             }
 629:.\Generated_Source\PSoC4/UART_UART.c ****         }
 630:.\Generated_Source\PSoC4/UART_UART.c **** 
 631:.\Generated_Source\PSoC4/UART_UART.c **** 
 632:.\Generated_Source\PSoC4/UART_UART.c ****         /*******************************************************************************
 633:.\Generated_Source\PSoC4/UART_UART.c ****         * Function Name: UART_UartSetRtsFifoLevel
 634:.\Generated_Source\PSoC4/UART_UART.c ****         ********************************************************************************
 635:.\Generated_Source\PSoC4/UART_UART.c ****         *
 636:.\Generated_Source\PSoC4/UART_UART.c ****         * Summary:
 637:.\Generated_Source\PSoC4/UART_UART.c ****         *  Sets level in the RX FIFO for RTS signal activation.
 638:.\Generated_Source\PSoC4/UART_UART.c ****         *  While the RX FIFO has fewer entries than the RX FIFO level the RTS signal
 639:.\Generated_Source\PSoC4/UART_UART.c ****         *  remains active, otherwise the RTS signal becomes inactive.
 640:.\Generated_Source\PSoC4/UART_UART.c ****         *
 641:.\Generated_Source\PSoC4/UART_UART.c ****         * Parameters:
 642:.\Generated_Source\PSoC4/UART_UART.c ****         *  level: Level in the RX FIFO for RTS signal activation.
 643:.\Generated_Source\PSoC4/UART_UART.c ****         *         The range of valid level values is between 0 and RX FIFO depth - 1.
 644:.\Generated_Source\PSoC4/UART_UART.c ****         *         Setting level value to 0 disables RTS signal activation.
 645:.\Generated_Source\PSoC4/UART_UART.c ****         *
 646:.\Generated_Source\PSoC4/UART_UART.c ****         * Return:
 647:.\Generated_Source\PSoC4/UART_UART.c ****         *  None
 648:.\Generated_Source\PSoC4/UART_UART.c ****         *
 649:.\Generated_Source\PSoC4/UART_UART.c ****         *******************************************************************************/
 650:.\Generated_Source\PSoC4/UART_UART.c ****         void UART_UartSetRtsFifoLevel(uint32 level)
 651:.\Generated_Source\PSoC4/UART_UART.c ****         {
 652:.\Generated_Source\PSoC4/UART_UART.c ****             uint32 uartFlowCtrl;
 653:.\Generated_Source\PSoC4/UART_UART.c **** 
 654:.\Generated_Source\PSoC4/UART_UART.c ****             uartFlowCtrl = UART_UART_FLOW_CTRL_REG;
 655:.\Generated_Source\PSoC4/UART_UART.c **** 
 656:.\Generated_Source\PSoC4/UART_UART.c ****             uartFlowCtrl &= ((uint32) ~UART_UART_FLOW_CTRL_TRIGGER_LEVEL_MASK); /* Clear level mask
 657:.\Generated_Source\PSoC4/UART_UART.c ****             uartFlowCtrl |= ((uint32) (UART_UART_FLOW_CTRL_TRIGGER_LEVEL_MASK & level));
 658:.\Generated_Source\PSoC4/UART_UART.c **** 
 659:.\Generated_Source\PSoC4/UART_UART.c ****             UART_UART_FLOW_CTRL_REG = uartFlowCtrl;
 660:.\Generated_Source\PSoC4/UART_UART.c ****         }
 661:.\Generated_Source\PSoC4/UART_UART.c ****     #endif /* !(UART_CY_SCBIP_V0 || UART_CY_SCBIP_V1) */
 662:.\Generated_Source\PSoC4/UART_UART.c **** 
 663:.\Generated_Source\PSoC4/UART_UART.c **** #endif /* (UART_UART_RX_DIRECTION) */
 664:.\Generated_Source\PSoC4/UART_UART.c **** 
 665:.\Generated_Source\PSoC4/UART_UART.c **** 
 666:.\Generated_Source\PSoC4/UART_UART.c **** #if(UART_UART_TX_DIRECTION)
 667:.\Generated_Source\PSoC4/UART_UART.c ****     /*******************************************************************************
 668:.\Generated_Source\PSoC4/UART_UART.c ****     * Function Name: UART_UartPutString
 669:.\Generated_Source\PSoC4/UART_UART.c ****     ********************************************************************************
 670:.\Generated_Source\PSoC4/UART_UART.c ****     *
 671:.\Generated_Source\PSoC4/UART_UART.c ****     * Summary:
 672:.\Generated_Source\PSoC4/UART_UART.c ****     *  Places a NULL terminated string in the transmit buffer to be sent at the
 673:.\Generated_Source\PSoC4/UART_UART.c ****     *  next available bus time.
 674:.\Generated_Source\PSoC4/UART_UART.c ****     *  This function is blocking and waits until there is space available to put
 675:.\Generated_Source\PSoC4/UART_UART.c ****     *  all the requested data into the  transmit buffer.
 676:.\Generated_Source\PSoC4/UART_UART.c ****     *
 677:.\Generated_Source\PSoC4/UART_UART.c ****     * Parameters:
 678:.\Generated_Source\PSoC4/UART_UART.c ****     *  string: pointer to the null terminated string array to be placed in the
 679:.\Generated_Source\PSoC4/UART_UART.c ****     *          transmit buffer.
ARM GAS  C:\Users\moxon\AppData\Local\Temp\ccgzGwxu.s 			page 21


 680:.\Generated_Source\PSoC4/UART_UART.c ****     *
 681:.\Generated_Source\PSoC4/UART_UART.c ****     * Return:
 682:.\Generated_Source\PSoC4/UART_UART.c ****     *  None
 683:.\Generated_Source\PSoC4/UART_UART.c ****     *
 684:.\Generated_Source\PSoC4/UART_UART.c ****     *******************************************************************************/
 685:.\Generated_Source\PSoC4/UART_UART.c ****     void UART_UartPutString(const char8 string[])
 686:.\Generated_Source\PSoC4/UART_UART.c ****     {
 424              		.loc 1 686 0
 425              		.cfi_startproc
 426              	.LVL28:
 427 0000 10B5     		push	{r4, lr}
 428              		.cfi_def_cfa_offset 8
 429              		.cfi_offset 4, -8
 430              		.cfi_offset 14, -4
 431 0002 041C     		mov	r4, r0
 432              	.LVL29:
 433              	.L33:
 434 0004 0134     		add	r4, r4, #1
 435              	.LVL30:
 436 0006 631E     		sub	r3, r4, #1
 687:.\Generated_Source\PSoC4/UART_UART.c ****         uint32 bufIndex;
 688:.\Generated_Source\PSoC4/UART_UART.c **** 
 689:.\Generated_Source\PSoC4/UART_UART.c ****         bufIndex = 0u;
 690:.\Generated_Source\PSoC4/UART_UART.c **** 
 691:.\Generated_Source\PSoC4/UART_UART.c ****         /* Blocks the control flow until all data has been sent */
 692:.\Generated_Source\PSoC4/UART_UART.c ****         while(string[bufIndex] != ((char8) 0))
 437              		.loc 1 692 0 discriminator 1
 438 0008 1878     		ldrb	r0, [r3]
 439 000a 0028     		cmp	r0, #0
 440 000c 02D0     		beq	.L35
 693:.\Generated_Source\PSoC4/UART_UART.c ****         {
 694:.\Generated_Source\PSoC4/UART_UART.c ****             UART_UartPutChar((uint32) string[bufIndex]);
 441              		.loc 1 694 0
 442 000e FFF7FEFF 		bl	UART_SpiUartWriteTxData
 443              	.LVL31:
 444 0012 F7E7     		b	.L33
 445              	.LVL32:
 446              	.L35:
 695:.\Generated_Source\PSoC4/UART_UART.c ****             bufIndex++;
 696:.\Generated_Source\PSoC4/UART_UART.c ****         }
 697:.\Generated_Source\PSoC4/UART_UART.c ****     }
 447              		.loc 1 697 0
 448              		@ sp needed
 449              	.LVL33:
 450 0014 10BD     		pop	{r4, pc}
 451              		.cfi_endproc
 452              	.LFE7:
 453              		.size	UART_UartPutString, .-UART_UartPutString
 454              		.section	.text.UART_UartPutCRLF,"ax",%progbits
 455              		.align	1
 456              		.global	UART_UartPutCRLF
 457              		.code	16
 458              		.thumb_func
 459              		.type	UART_UartPutCRLF, %function
 460              	UART_UartPutCRLF:
 461              	.LFB8:
 698:.\Generated_Source\PSoC4/UART_UART.c **** 
ARM GAS  C:\Users\moxon\AppData\Local\Temp\ccgzGwxu.s 			page 22


 699:.\Generated_Source\PSoC4/UART_UART.c **** 
 700:.\Generated_Source\PSoC4/UART_UART.c ****     /*******************************************************************************
 701:.\Generated_Source\PSoC4/UART_UART.c ****     * Function Name: UART_UartPutCRLF
 702:.\Generated_Source\PSoC4/UART_UART.c ****     ********************************************************************************
 703:.\Generated_Source\PSoC4/UART_UART.c ****     *
 704:.\Generated_Source\PSoC4/UART_UART.c ****     * Summary:
 705:.\Generated_Source\PSoC4/UART_UART.c ****     *  Places a byte of data followed by a carriage return (0x0D) and
 706:.\Generated_Source\PSoC4/UART_UART.c ****     *  line feed (0x0A) into the transmit buffer.
 707:.\Generated_Source\PSoC4/UART_UART.c ****     *  This function is blocking and waits until there is space available to put
 708:.\Generated_Source\PSoC4/UART_UART.c ****     *  all the requested data into the  transmit buffer.
 709:.\Generated_Source\PSoC4/UART_UART.c ****     *
 710:.\Generated_Source\PSoC4/UART_UART.c ****     * Parameters:
 711:.\Generated_Source\PSoC4/UART_UART.c ****     *  txDataByte : the data to be transmitted.
 712:.\Generated_Source\PSoC4/UART_UART.c ****     *
 713:.\Generated_Source\PSoC4/UART_UART.c ****     * Return:
 714:.\Generated_Source\PSoC4/UART_UART.c ****     *  None
 715:.\Generated_Source\PSoC4/UART_UART.c ****     *
 716:.\Generated_Source\PSoC4/UART_UART.c ****     *******************************************************************************/
 717:.\Generated_Source\PSoC4/UART_UART.c ****     void UART_UartPutCRLF(uint32 txDataByte)
 718:.\Generated_Source\PSoC4/UART_UART.c ****     {
 462              		.loc 1 718 0
 463              		.cfi_startproc
 464              	.LVL34:
 465 0000 08B5     		push	{r3, lr}
 466              		.cfi_def_cfa_offset 8
 467              		.cfi_offset 3, -8
 468              		.cfi_offset 14, -4
 719:.\Generated_Source\PSoC4/UART_UART.c ****         UART_UartPutChar(txDataByte);  /* Blocks control flow until all data has been sent */
 469              		.loc 1 719 0
 470 0002 FFF7FEFF 		bl	UART_SpiUartWriteTxData
 471              	.LVL35:
 720:.\Generated_Source\PSoC4/UART_UART.c ****         UART_UartPutChar(0x0Du);       /* Blocks control flow until all data has been sent */
 472              		.loc 1 720 0
 473 0006 0D20     		mov	r0, #13
 474 0008 FFF7FEFF 		bl	UART_SpiUartWriteTxData
 475              	.LVL36:
 721:.\Generated_Source\PSoC4/UART_UART.c ****         UART_UartPutChar(0x0Au);       /* Blocks control flow until all data has been sent */
 476              		.loc 1 721 0
 477 000c 0A20     		mov	r0, #10
 478 000e FFF7FEFF 		bl	UART_SpiUartWriteTxData
 479              	.LVL37:
 722:.\Generated_Source\PSoC4/UART_UART.c ****     }
 480              		.loc 1 722 0
 481              		@ sp needed
 482 0012 08BD     		pop	{r3, pc}
 483              		.cfi_endproc
 484              	.LFE8:
 485              		.size	UART_UartPutCRLF, .-UART_UartPutCRLF
 486              		.text
 487              	.Letext0:
 488              		.file 2 "Generated_Source\\PSoC4/cytypes.h"
 489              		.file 3 ".\\Generated_Source\\PSoC4\\UART_SPI_UART_PVT.h"
 490              		.file 4 "Generated_Source\\PSoC4/CyLib.h"
 491              		.file 5 ".\\Generated_Source\\PSoC4\\UART_SPI_UART.h"