ARM GAS  C:\Users\moxon\AppData\Local\Temp\ccjvxkER.s 			page 1


   1              		.cpu cortex-m0
   2              		.fpu softvfp
   3              		.eabi_attribute 20, 1
   4              		.eabi_attribute 21, 1
   5              		.eabi_attribute 23, 3
   6              		.eabi_attribute 24, 1
   7              		.eabi_attribute 25, 1
   8              		.eabi_attribute 26, 1
   9              		.eabi_attribute 30, 4
  10              		.eabi_attribute 34, 0
  11              		.eabi_attribute 18, 4
  12              		.code	16
  13              		.file	"UART.c"
  14              		.text
  15              	.Ltext0:
  16              		.cfi_sections	.debug_frame
  17              		.section	.text.UART_Init,"ax",%progbits
  18              		.align	1
  19              		.global	UART_Init
  20              		.code	16
  21              		.thumb_func
  22              		.type	UART_Init, %function
  23              	UART_Init:
  24              	.LFB0:
  25              		.file 1 ".\\Generated_Source\\PSoC4\\UART.c"
   1:.\Generated_Source\PSoC4/UART.c **** /*******************************************************************************
   2:.\Generated_Source\PSoC4/UART.c **** * File Name: UART.c
   3:.\Generated_Source\PSoC4/UART.c **** * Version 3.0
   4:.\Generated_Source\PSoC4/UART.c **** *
   5:.\Generated_Source\PSoC4/UART.c **** * Description:
   6:.\Generated_Source\PSoC4/UART.c **** *  This file provides the source code to the API for the SCB Component.
   7:.\Generated_Source\PSoC4/UART.c **** *
   8:.\Generated_Source\PSoC4/UART.c **** * Note:
   9:.\Generated_Source\PSoC4/UART.c **** *
  10:.\Generated_Source\PSoC4/UART.c **** *******************************************************************************
  11:.\Generated_Source\PSoC4/UART.c **** * Copyright 2013-2015, Cypress Semiconductor Corporation.  All rights reserved.
  12:.\Generated_Source\PSoC4/UART.c **** * You may use this file only in accordance with the license, terms, conditions,
  13:.\Generated_Source\PSoC4/UART.c **** * disclaimers, and limitations in the end user license agreement accompanying
  14:.\Generated_Source\PSoC4/UART.c **** * the software package with which this file was provided.
  15:.\Generated_Source\PSoC4/UART.c **** *******************************************************************************/
  16:.\Generated_Source\PSoC4/UART.c **** 
  17:.\Generated_Source\PSoC4/UART.c **** #include "UART_PVT.h"
  18:.\Generated_Source\PSoC4/UART.c **** 
  19:.\Generated_Source\PSoC4/UART.c **** #if (UART_SCB_MODE_I2C_INC)
  20:.\Generated_Source\PSoC4/UART.c ****     #include "UART_I2C_PVT.h"
  21:.\Generated_Source\PSoC4/UART.c **** #endif /* (UART_SCB_MODE_I2C_INC) */
  22:.\Generated_Source\PSoC4/UART.c **** 
  23:.\Generated_Source\PSoC4/UART.c **** #if (UART_SCB_MODE_EZI2C_INC)
  24:.\Generated_Source\PSoC4/UART.c ****     #include "UART_EZI2C_PVT.h"
  25:.\Generated_Source\PSoC4/UART.c **** #endif /* (UART_SCB_MODE_EZI2C_INC) */
  26:.\Generated_Source\PSoC4/UART.c **** 
  27:.\Generated_Source\PSoC4/UART.c **** #if (UART_SCB_MODE_SPI_INC || UART_SCB_MODE_UART_INC)
  28:.\Generated_Source\PSoC4/UART.c ****     #include "UART_SPI_UART_PVT.h"
  29:.\Generated_Source\PSoC4/UART.c **** #endif /* (UART_SCB_MODE_SPI_INC || UART_SCB_MODE_UART_INC) */
  30:.\Generated_Source\PSoC4/UART.c **** 
  31:.\Generated_Source\PSoC4/UART.c **** 
  32:.\Generated_Source\PSoC4/UART.c **** /***************************************
ARM GAS  C:\Users\moxon\AppData\Local\Temp\ccjvxkER.s 			page 2


  33:.\Generated_Source\PSoC4/UART.c **** *    Run Time Configuration Vars
  34:.\Generated_Source\PSoC4/UART.c **** ***************************************/
  35:.\Generated_Source\PSoC4/UART.c **** 
  36:.\Generated_Source\PSoC4/UART.c **** /* Stores internal component configuration for Unconfigured mode */
  37:.\Generated_Source\PSoC4/UART.c **** #if (UART_SCB_MODE_UNCONFIG_CONST_CFG)
  38:.\Generated_Source\PSoC4/UART.c ****     /* Common configuration variables */
  39:.\Generated_Source\PSoC4/UART.c ****     uint8 UART_scbMode = UART_SCB_MODE_UNCONFIG;
  40:.\Generated_Source\PSoC4/UART.c ****     uint8 UART_scbEnableWake;
  41:.\Generated_Source\PSoC4/UART.c ****     uint8 UART_scbEnableIntr;
  42:.\Generated_Source\PSoC4/UART.c **** 
  43:.\Generated_Source\PSoC4/UART.c ****     /* I2C configuration variables */
  44:.\Generated_Source\PSoC4/UART.c ****     uint8 UART_mode;
  45:.\Generated_Source\PSoC4/UART.c ****     uint8 UART_acceptAddr;
  46:.\Generated_Source\PSoC4/UART.c **** 
  47:.\Generated_Source\PSoC4/UART.c ****     /* SPI/UART configuration variables */
  48:.\Generated_Source\PSoC4/UART.c ****     volatile uint8 * UART_rxBuffer;
  49:.\Generated_Source\PSoC4/UART.c ****     uint8  UART_rxDataBits;
  50:.\Generated_Source\PSoC4/UART.c ****     uint32 UART_rxBufferSize;
  51:.\Generated_Source\PSoC4/UART.c **** 
  52:.\Generated_Source\PSoC4/UART.c ****     volatile uint8 * UART_txBuffer;
  53:.\Generated_Source\PSoC4/UART.c ****     uint8  UART_txDataBits;
  54:.\Generated_Source\PSoC4/UART.c ****     uint32 UART_txBufferSize;
  55:.\Generated_Source\PSoC4/UART.c **** 
  56:.\Generated_Source\PSoC4/UART.c ****     /* EZI2C configuration variables */
  57:.\Generated_Source\PSoC4/UART.c ****     uint8 UART_numberOfAddr;
  58:.\Generated_Source\PSoC4/UART.c ****     uint8 UART_subAddrSize;
  59:.\Generated_Source\PSoC4/UART.c **** #endif /* (UART_SCB_MODE_UNCONFIG_CONST_CFG) */
  60:.\Generated_Source\PSoC4/UART.c **** 
  61:.\Generated_Source\PSoC4/UART.c **** 
  62:.\Generated_Source\PSoC4/UART.c **** /***************************************
  63:.\Generated_Source\PSoC4/UART.c **** *     Common SCB Vars
  64:.\Generated_Source\PSoC4/UART.c **** ***************************************/
  65:.\Generated_Source\PSoC4/UART.c **** 
  66:.\Generated_Source\PSoC4/UART.c **** uint8 UART_initVar = 0u;
  67:.\Generated_Source\PSoC4/UART.c **** 
  68:.\Generated_Source\PSoC4/UART.c **** #if (UART_SCB_IRQ_INTERNAL)
  69:.\Generated_Source\PSoC4/UART.c **** #if !defined (CY_REMOVE_UART_CUSTOM_INTR_HANDLER)
  70:.\Generated_Source\PSoC4/UART.c ****     void (*UART_customIntrHandler)(void) = NULL;
  71:.\Generated_Source\PSoC4/UART.c **** #endif /* !defined (CY_REMOVE_UART_CUSTOM_INTR_HANDLER) */
  72:.\Generated_Source\PSoC4/UART.c **** #endif /* (UART_SCB_IRQ_INTERNAL) */
  73:.\Generated_Source\PSoC4/UART.c **** 
  74:.\Generated_Source\PSoC4/UART.c **** 
  75:.\Generated_Source\PSoC4/UART.c **** /***************************************
  76:.\Generated_Source\PSoC4/UART.c **** *    Private Function Prototypes
  77:.\Generated_Source\PSoC4/UART.c **** ***************************************/
  78:.\Generated_Source\PSoC4/UART.c **** 
  79:.\Generated_Source\PSoC4/UART.c **** static void UART_ScbEnableIntr(void);
  80:.\Generated_Source\PSoC4/UART.c **** static void UART_ScbModeStop(void);
  81:.\Generated_Source\PSoC4/UART.c **** static void UART_ScbModePostEnable(void);
  82:.\Generated_Source\PSoC4/UART.c **** 
  83:.\Generated_Source\PSoC4/UART.c **** 
  84:.\Generated_Source\PSoC4/UART.c **** /*******************************************************************************
  85:.\Generated_Source\PSoC4/UART.c **** * Function Name: UART_Init
  86:.\Generated_Source\PSoC4/UART.c **** ********************************************************************************
  87:.\Generated_Source\PSoC4/UART.c **** *
  88:.\Generated_Source\PSoC4/UART.c **** * Summary:
  89:.\Generated_Source\PSoC4/UART.c **** *  Initializes the SCB component to operate in one of the selected
ARM GAS  C:\Users\moxon\AppData\Local\Temp\ccjvxkER.s 			page 3


  90:.\Generated_Source\PSoC4/UART.c **** *  configurations: I2C, SPI, UART or EZI2C.
  91:.\Generated_Source\PSoC4/UART.c **** *  When the configuration is set to "Unconfigured SCB", this function does
  92:.\Generated_Source\PSoC4/UART.c **** *  not do any initialization. Use mode-specific initialization APIs instead:
  93:.\Generated_Source\PSoC4/UART.c **** *  SCB_I2CInit, SCB_SpiInit, SCB_UartInit or SCB_EzI2CInit.
  94:.\Generated_Source\PSoC4/UART.c **** *
  95:.\Generated_Source\PSoC4/UART.c **** * Parameters:
  96:.\Generated_Source\PSoC4/UART.c **** *  None
  97:.\Generated_Source\PSoC4/UART.c **** *
  98:.\Generated_Source\PSoC4/UART.c **** * Return:
  99:.\Generated_Source\PSoC4/UART.c **** *  None
 100:.\Generated_Source\PSoC4/UART.c **** *
 101:.\Generated_Source\PSoC4/UART.c **** *******************************************************************************/
 102:.\Generated_Source\PSoC4/UART.c **** void UART_Init(void)
 103:.\Generated_Source\PSoC4/UART.c **** {
  26              		.loc 1 103 0
  27              		.cfi_startproc
  28 0000 08B5     		push	{r3, lr}
  29              		.cfi_def_cfa_offset 8
  30              		.cfi_offset 3, -8
  31              		.cfi_offset 14, -4
 104:.\Generated_Source\PSoC4/UART.c **** #if (UART_SCB_MODE_UNCONFIG_CONST_CFG)
 105:.\Generated_Source\PSoC4/UART.c ****     if (UART_SCB_MODE_UNCONFIG_RUNTM_CFG)
 106:.\Generated_Source\PSoC4/UART.c ****     {
 107:.\Generated_Source\PSoC4/UART.c ****         UART_initVar = 0u;
 108:.\Generated_Source\PSoC4/UART.c ****     }
 109:.\Generated_Source\PSoC4/UART.c ****     else
 110:.\Generated_Source\PSoC4/UART.c ****     {
 111:.\Generated_Source\PSoC4/UART.c ****         /* Initialization was done before this function call */
 112:.\Generated_Source\PSoC4/UART.c ****     }
 113:.\Generated_Source\PSoC4/UART.c **** 
 114:.\Generated_Source\PSoC4/UART.c **** #elif (UART_SCB_MODE_I2C_CONST_CFG)
 115:.\Generated_Source\PSoC4/UART.c ****     UART_I2CInit();
 116:.\Generated_Source\PSoC4/UART.c **** 
 117:.\Generated_Source\PSoC4/UART.c **** #elif (UART_SCB_MODE_SPI_CONST_CFG)
 118:.\Generated_Source\PSoC4/UART.c ****     UART_SpiInit();
 119:.\Generated_Source\PSoC4/UART.c **** 
 120:.\Generated_Source\PSoC4/UART.c **** #elif (UART_SCB_MODE_UART_CONST_CFG)
 121:.\Generated_Source\PSoC4/UART.c ****     UART_UartInit();
  32              		.loc 1 121 0
  33 0002 FFF7FEFF 		bl	UART_UartInit
  34              	.LVL0:
 122:.\Generated_Source\PSoC4/UART.c **** 
 123:.\Generated_Source\PSoC4/UART.c **** #elif (UART_SCB_MODE_EZI2C_CONST_CFG)
 124:.\Generated_Source\PSoC4/UART.c ****     UART_EzI2CInit();
 125:.\Generated_Source\PSoC4/UART.c **** 
 126:.\Generated_Source\PSoC4/UART.c **** #endif /* (UART_SCB_MODE_UNCONFIG_CONST_CFG) */
 127:.\Generated_Source\PSoC4/UART.c **** }
  35              		.loc 1 127 0
  36              		@ sp needed
  37 0006 08BD     		pop	{r3, pc}
  38              		.cfi_endproc
  39              	.LFE0:
  40              		.size	UART_Init, .-UART_Init
  41              		.section	.text.UART_Enable,"ax",%progbits
  42              		.align	1
  43              		.global	UART_Enable
  44              		.code	16
ARM GAS  C:\Users\moxon\AppData\Local\Temp\ccjvxkER.s 			page 4


  45              		.thumb_func
  46              		.type	UART_Enable, %function
  47              	UART_Enable:
  48              	.LFB1:
 128:.\Generated_Source\PSoC4/UART.c **** 
 129:.\Generated_Source\PSoC4/UART.c **** 
 130:.\Generated_Source\PSoC4/UART.c **** /*******************************************************************************
 131:.\Generated_Source\PSoC4/UART.c **** * Function Name: UART_Enable
 132:.\Generated_Source\PSoC4/UART.c **** ********************************************************************************
 133:.\Generated_Source\PSoC4/UART.c **** *
 134:.\Generated_Source\PSoC4/UART.c **** * Summary:
 135:.\Generated_Source\PSoC4/UART.c **** *  Enables the SCB component operation.
 136:.\Generated_Source\PSoC4/UART.c **** *  The SCB configuration should be not changed when the component is enabled.
 137:.\Generated_Source\PSoC4/UART.c **** *  Any configuration changes should be made after disabling the component.
 138:.\Generated_Source\PSoC4/UART.c **** *
 139:.\Generated_Source\PSoC4/UART.c **** * Parameters:
 140:.\Generated_Source\PSoC4/UART.c **** *  None
 141:.\Generated_Source\PSoC4/UART.c **** *
 142:.\Generated_Source\PSoC4/UART.c **** * Return:
 143:.\Generated_Source\PSoC4/UART.c **** *  None
 144:.\Generated_Source\PSoC4/UART.c **** *
 145:.\Generated_Source\PSoC4/UART.c **** *******************************************************************************/
 146:.\Generated_Source\PSoC4/UART.c **** void UART_Enable(void)
 147:.\Generated_Source\PSoC4/UART.c **** {
  49              		.loc 1 147 0
  50              		.cfi_startproc
  51 0000 08B5     		push	{r3, lr}
  52              		.cfi_def_cfa_offset 8
  53              		.cfi_offset 3, -8
  54              		.cfi_offset 14, -4
 148:.\Generated_Source\PSoC4/UART.c **** #if (UART_SCB_MODE_UNCONFIG_CONST_CFG)
 149:.\Generated_Source\PSoC4/UART.c ****     /* Enable SCB block, only if it is already configured */
 150:.\Generated_Source\PSoC4/UART.c ****     if (!UART_SCB_MODE_UNCONFIG_RUNTM_CFG)
 151:.\Generated_Source\PSoC4/UART.c ****     {
 152:.\Generated_Source\PSoC4/UART.c ****         UART_CTRL_REG |= UART_CTRL_ENABLED;
 153:.\Generated_Source\PSoC4/UART.c **** 
 154:.\Generated_Source\PSoC4/UART.c ****         UART_ScbEnableIntr();
 155:.\Generated_Source\PSoC4/UART.c **** 
 156:.\Generated_Source\PSoC4/UART.c ****         /* Call PostEnable function specific to current operation mode */
 157:.\Generated_Source\PSoC4/UART.c ****         UART_ScbModePostEnable();
 158:.\Generated_Source\PSoC4/UART.c ****     }
 159:.\Generated_Source\PSoC4/UART.c **** #else
 160:.\Generated_Source\PSoC4/UART.c ****     UART_CTRL_REG |= UART_CTRL_ENABLED;
  55              		.loc 1 160 0
  56 0002 064B     		ldr	r3, .L3
  57 0004 8022     		mov	r2, #128
  58 0006 1968     		ldr	r1, [r3]
  59 0008 1206     		lsl	r2, r2, #24
  60 000a 0A43     		orr	r2, r1
  61 000c 1A60     		str	r2, [r3]
  62              	.LBB12:
  63              	.LBB13:
 161:.\Generated_Source\PSoC4/UART.c **** 
 162:.\Generated_Source\PSoC4/UART.c ****     UART_ScbEnableIntr();
 163:.\Generated_Source\PSoC4/UART.c **** 
 164:.\Generated_Source\PSoC4/UART.c ****     /* Call PostEnable function specific to current operation mode */
 165:.\Generated_Source\PSoC4/UART.c ****     UART_ScbModePostEnable();
ARM GAS  C:\Users\moxon\AppData\Local\Temp\ccjvxkER.s 			page 5


 166:.\Generated_Source\PSoC4/UART.c **** #endif /* (UART_SCB_MODE_UNCONFIG_CONST_CFG) */
 167:.\Generated_Source\PSoC4/UART.c **** }
 168:.\Generated_Source\PSoC4/UART.c **** 
 169:.\Generated_Source\PSoC4/UART.c **** 
 170:.\Generated_Source\PSoC4/UART.c **** /*******************************************************************************
 171:.\Generated_Source\PSoC4/UART.c **** * Function Name: UART_Start
 172:.\Generated_Source\PSoC4/UART.c **** ********************************************************************************
 173:.\Generated_Source\PSoC4/UART.c **** *
 174:.\Generated_Source\PSoC4/UART.c **** * Summary:
 175:.\Generated_Source\PSoC4/UART.c **** *  Invokes SCB_Init() and SCB_Enable().
 176:.\Generated_Source\PSoC4/UART.c **** *  After this function call, the component is enabled and ready for operation.
 177:.\Generated_Source\PSoC4/UART.c **** *  When configuration is set to "Unconfigured SCB", the component must first be
 178:.\Generated_Source\PSoC4/UART.c **** *  initialized to operate in one of the following configurations: I2C, SPI, UART
 179:.\Generated_Source\PSoC4/UART.c **** *  or EZ I2C. Otherwise this function does not enable the component.
 180:.\Generated_Source\PSoC4/UART.c **** *
 181:.\Generated_Source\PSoC4/UART.c **** * Parameters:
 182:.\Generated_Source\PSoC4/UART.c **** *  None
 183:.\Generated_Source\PSoC4/UART.c **** *
 184:.\Generated_Source\PSoC4/UART.c **** * Return:
 185:.\Generated_Source\PSoC4/UART.c **** *  None
 186:.\Generated_Source\PSoC4/UART.c **** *
 187:.\Generated_Source\PSoC4/UART.c **** * Global variables:
 188:.\Generated_Source\PSoC4/UART.c **** *  UART_initVar - used to check initial configuration, modified
 189:.\Generated_Source\PSoC4/UART.c **** *  on first function call.
 190:.\Generated_Source\PSoC4/UART.c **** *
 191:.\Generated_Source\PSoC4/UART.c **** *******************************************************************************/
 192:.\Generated_Source\PSoC4/UART.c **** void UART_Start(void)
 193:.\Generated_Source\PSoC4/UART.c **** {
 194:.\Generated_Source\PSoC4/UART.c ****     if (0u == UART_initVar)
 195:.\Generated_Source\PSoC4/UART.c ****     {
 196:.\Generated_Source\PSoC4/UART.c ****         UART_Init();
 197:.\Generated_Source\PSoC4/UART.c ****         UART_initVar = 1u; /* Component was initialized */
 198:.\Generated_Source\PSoC4/UART.c ****     }
 199:.\Generated_Source\PSoC4/UART.c **** 
 200:.\Generated_Source\PSoC4/UART.c ****     UART_Enable();
 201:.\Generated_Source\PSoC4/UART.c **** }
 202:.\Generated_Source\PSoC4/UART.c **** 
 203:.\Generated_Source\PSoC4/UART.c **** 
 204:.\Generated_Source\PSoC4/UART.c **** /*******************************************************************************
 205:.\Generated_Source\PSoC4/UART.c **** * Function Name: UART_Stop
 206:.\Generated_Source\PSoC4/UART.c **** ********************************************************************************
 207:.\Generated_Source\PSoC4/UART.c **** *
 208:.\Generated_Source\PSoC4/UART.c **** * Summary:
 209:.\Generated_Source\PSoC4/UART.c **** *  Disables the SCB component and its interrupt.
 210:.\Generated_Source\PSoC4/UART.c **** *  It also disables all TX interrupt sources so as not to cause an unexpected
 211:.\Generated_Source\PSoC4/UART.c **** *  interrupt trigger because after the component is enabled, the TX FIFO 
 212:.\Generated_Source\PSoC4/UART.c **** *  is empty.
 213:.\Generated_Source\PSoC4/UART.c **** *
 214:.\Generated_Source\PSoC4/UART.c **** * Parameters:
 215:.\Generated_Source\PSoC4/UART.c **** *  None
 216:.\Generated_Source\PSoC4/UART.c **** *
 217:.\Generated_Source\PSoC4/UART.c **** * Return:
 218:.\Generated_Source\PSoC4/UART.c **** *  None
 219:.\Generated_Source\PSoC4/UART.c **** * 
 220:.\Generated_Source\PSoC4/UART.c **** *******************************************************************************/
 221:.\Generated_Source\PSoC4/UART.c **** void UART_Stop(void)
 222:.\Generated_Source\PSoC4/UART.c **** {
ARM GAS  C:\Users\moxon\AppData\Local\Temp\ccjvxkER.s 			page 6


 223:.\Generated_Source\PSoC4/UART.c **** #if (UART_SCB_IRQ_INTERNAL)
 224:.\Generated_Source\PSoC4/UART.c ****     UART_DisableInt();
 225:.\Generated_Source\PSoC4/UART.c **** #endif /* (UART_SCB_IRQ_INTERNAL) */
 226:.\Generated_Source\PSoC4/UART.c **** 
 227:.\Generated_Source\PSoC4/UART.c ****     /* Call Stop function specific to current operation mode */
 228:.\Generated_Source\PSoC4/UART.c ****     UART_ScbModeStop();
 229:.\Generated_Source\PSoC4/UART.c **** 
 230:.\Generated_Source\PSoC4/UART.c ****     /* Disable SCB IP */
 231:.\Generated_Source\PSoC4/UART.c ****     UART_CTRL_REG &= (uint32) ~UART_CTRL_ENABLED;
 232:.\Generated_Source\PSoC4/UART.c **** 
 233:.\Generated_Source\PSoC4/UART.c ****     /* Disable all TX interrupt sources so as not to cause an unexpected
 234:.\Generated_Source\PSoC4/UART.c ****     * interrupt trigger because after the component is enabled, the TX FIFO
 235:.\Generated_Source\PSoC4/UART.c ****     * is empty.
 236:.\Generated_Source\PSoC4/UART.c ****     * For SCB IP v0, it is critical as it does not mask-out interrupt
 237:.\Generated_Source\PSoC4/UART.c ****     * sources when they are disabled. This can cause a code lock-up in the
 238:.\Generated_Source\PSoC4/UART.c ****     * interrupt handler because TX FIFO cannot be loaded after the block
 239:.\Generated_Source\PSoC4/UART.c ****     * is disabled.
 240:.\Generated_Source\PSoC4/UART.c ****     */
 241:.\Generated_Source\PSoC4/UART.c ****     UART_SetTxInterruptMode(UART_NO_INTR_SOURCES);
 242:.\Generated_Source\PSoC4/UART.c **** 
 243:.\Generated_Source\PSoC4/UART.c **** #if (UART_SCB_IRQ_INTERNAL)
 244:.\Generated_Source\PSoC4/UART.c ****     UART_ClearPendingInt();
 245:.\Generated_Source\PSoC4/UART.c **** #endif /* (UART_SCB_IRQ_INTERNAL) */
 246:.\Generated_Source\PSoC4/UART.c **** }
 247:.\Generated_Source\PSoC4/UART.c **** 
 248:.\Generated_Source\PSoC4/UART.c **** 
 249:.\Generated_Source\PSoC4/UART.c **** /*******************************************************************************
 250:.\Generated_Source\PSoC4/UART.c **** * Function Name: UART_SetRxFifoLevel
 251:.\Generated_Source\PSoC4/UART.c **** ********************************************************************************
 252:.\Generated_Source\PSoC4/UART.c **** *
 253:.\Generated_Source\PSoC4/UART.c **** * Summary:
 254:.\Generated_Source\PSoC4/UART.c **** *  Sets level in the RX FIFO to generate a RX level interrupt.
 255:.\Generated_Source\PSoC4/UART.c **** *  When the RX FIFO has more entries than the RX FIFO level an RX level
 256:.\Generated_Source\PSoC4/UART.c **** *  interrupt request is generated.
 257:.\Generated_Source\PSoC4/UART.c **** *
 258:.\Generated_Source\PSoC4/UART.c **** * Parameters:
 259:.\Generated_Source\PSoC4/UART.c **** *  level: Level in the RX FIFO to generate RX level interrupt.
 260:.\Generated_Source\PSoC4/UART.c **** *         The range of valid level values is between 0 and RX FIFO depth - 1.
 261:.\Generated_Source\PSoC4/UART.c **** *
 262:.\Generated_Source\PSoC4/UART.c **** * Return:
 263:.\Generated_Source\PSoC4/UART.c **** *  None
 264:.\Generated_Source\PSoC4/UART.c **** *
 265:.\Generated_Source\PSoC4/UART.c **** *******************************************************************************/
 266:.\Generated_Source\PSoC4/UART.c **** void UART_SetRxFifoLevel(uint32 level)
 267:.\Generated_Source\PSoC4/UART.c **** {
 268:.\Generated_Source\PSoC4/UART.c ****     uint32 rxFifoCtrl;
 269:.\Generated_Source\PSoC4/UART.c **** 
 270:.\Generated_Source\PSoC4/UART.c ****     rxFifoCtrl = UART_RX_FIFO_CTRL_REG;
 271:.\Generated_Source\PSoC4/UART.c **** 
 272:.\Generated_Source\PSoC4/UART.c ****     rxFifoCtrl &= ((uint32) ~UART_RX_FIFO_CTRL_TRIGGER_LEVEL_MASK); /* Clear level mask bits */
 273:.\Generated_Source\PSoC4/UART.c ****     rxFifoCtrl |= ((uint32) (UART_RX_FIFO_CTRL_TRIGGER_LEVEL_MASK & level));
 274:.\Generated_Source\PSoC4/UART.c **** 
 275:.\Generated_Source\PSoC4/UART.c ****     UART_RX_FIFO_CTRL_REG = rxFifoCtrl;
 276:.\Generated_Source\PSoC4/UART.c **** }
 277:.\Generated_Source\PSoC4/UART.c **** 
 278:.\Generated_Source\PSoC4/UART.c **** 
 279:.\Generated_Source\PSoC4/UART.c **** /*******************************************************************************
ARM GAS  C:\Users\moxon\AppData\Local\Temp\ccjvxkER.s 			page 7


 280:.\Generated_Source\PSoC4/UART.c **** * Function Name: UART_SetTxFifoLevel
 281:.\Generated_Source\PSoC4/UART.c **** ********************************************************************************
 282:.\Generated_Source\PSoC4/UART.c **** *
 283:.\Generated_Source\PSoC4/UART.c **** * Summary:
 284:.\Generated_Source\PSoC4/UART.c **** *  Sets level in the TX FIFO to generate a TX level interrupt.
 285:.\Generated_Source\PSoC4/UART.c **** *  When the TX FIFO has more entries than the TX FIFO level an TX level
 286:.\Generated_Source\PSoC4/UART.c **** *  interrupt request is generated.
 287:.\Generated_Source\PSoC4/UART.c **** *
 288:.\Generated_Source\PSoC4/UART.c **** * Parameters:
 289:.\Generated_Source\PSoC4/UART.c **** *  level: Level in the TX FIFO to generate TX level interrupt.
 290:.\Generated_Source\PSoC4/UART.c **** *         The range of valid level values is between 0 and TX FIFO depth - 1.
 291:.\Generated_Source\PSoC4/UART.c **** *
 292:.\Generated_Source\PSoC4/UART.c **** * Return:
 293:.\Generated_Source\PSoC4/UART.c **** *  None
 294:.\Generated_Source\PSoC4/UART.c **** *
 295:.\Generated_Source\PSoC4/UART.c **** *******************************************************************************/
 296:.\Generated_Source\PSoC4/UART.c **** void UART_SetTxFifoLevel(uint32 level)
 297:.\Generated_Source\PSoC4/UART.c **** {
 298:.\Generated_Source\PSoC4/UART.c ****     uint32 txFifoCtrl;
 299:.\Generated_Source\PSoC4/UART.c **** 
 300:.\Generated_Source\PSoC4/UART.c ****     txFifoCtrl = UART_TX_FIFO_CTRL_REG;
 301:.\Generated_Source\PSoC4/UART.c **** 
 302:.\Generated_Source\PSoC4/UART.c ****     txFifoCtrl &= ((uint32) ~UART_TX_FIFO_CTRL_TRIGGER_LEVEL_MASK); /* Clear level mask bits */
 303:.\Generated_Source\PSoC4/UART.c ****     txFifoCtrl |= ((uint32) (UART_TX_FIFO_CTRL_TRIGGER_LEVEL_MASK & level));
 304:.\Generated_Source\PSoC4/UART.c **** 
 305:.\Generated_Source\PSoC4/UART.c ****     UART_TX_FIFO_CTRL_REG = txFifoCtrl;
 306:.\Generated_Source\PSoC4/UART.c **** }
 307:.\Generated_Source\PSoC4/UART.c **** 
 308:.\Generated_Source\PSoC4/UART.c **** 
 309:.\Generated_Source\PSoC4/UART.c **** #if (UART_SCB_IRQ_INTERNAL)
 310:.\Generated_Source\PSoC4/UART.c ****     /*******************************************************************************
 311:.\Generated_Source\PSoC4/UART.c ****     * Function Name: UART_SetCustomInterruptHandler
 312:.\Generated_Source\PSoC4/UART.c ****     ********************************************************************************
 313:.\Generated_Source\PSoC4/UART.c ****     *
 314:.\Generated_Source\PSoC4/UART.c ****     * Summary:
 315:.\Generated_Source\PSoC4/UART.c ****     *  Registers a function to be called by the internal interrupt handler.
 316:.\Generated_Source\PSoC4/UART.c ****     *  First the function that is registered is called, then the internal interrupt
 317:.\Generated_Source\PSoC4/UART.c ****     *  handler performs any operation such as software buffer management functions
 318:.\Generated_Source\PSoC4/UART.c ****     *  before the interrupt returns.  It is the user's responsibility not to break
 319:.\Generated_Source\PSoC4/UART.c ****     *  the software buffer operations. Only one custom handler is supported, which
 320:.\Generated_Source\PSoC4/UART.c ****     *  is the function provided by the most recent call.
 321:.\Generated_Source\PSoC4/UART.c ****     *  At the initialization time no custom handler is registered.
 322:.\Generated_Source\PSoC4/UART.c ****     *
 323:.\Generated_Source\PSoC4/UART.c ****     * Parameters:
 324:.\Generated_Source\PSoC4/UART.c ****     *  func: Pointer to the function to register.
 325:.\Generated_Source\PSoC4/UART.c ****     *        The value NULL indicates to remove the current custom interrupt
 326:.\Generated_Source\PSoC4/UART.c ****     *        handler.
 327:.\Generated_Source\PSoC4/UART.c ****     *
 328:.\Generated_Source\PSoC4/UART.c ****     * Return:
 329:.\Generated_Source\PSoC4/UART.c ****     *  None
 330:.\Generated_Source\PSoC4/UART.c ****     *
 331:.\Generated_Source\PSoC4/UART.c ****     *******************************************************************************/
 332:.\Generated_Source\PSoC4/UART.c ****     void UART_SetCustomInterruptHandler(void (*func)(void))
 333:.\Generated_Source\PSoC4/UART.c ****     {
 334:.\Generated_Source\PSoC4/UART.c ****     #if !defined (CY_REMOVE_UART_CUSTOM_INTR_HANDLER)
 335:.\Generated_Source\PSoC4/UART.c ****         UART_customIntrHandler = func; /* Register interrupt handler */
 336:.\Generated_Source\PSoC4/UART.c ****     #else
ARM GAS  C:\Users\moxon\AppData\Local\Temp\ccjvxkER.s 			page 8


 337:.\Generated_Source\PSoC4/UART.c ****         if (NULL != func)
 338:.\Generated_Source\PSoC4/UART.c ****         {
 339:.\Generated_Source\PSoC4/UART.c ****             /* Suppress compiler warning */
 340:.\Generated_Source\PSoC4/UART.c ****         }
 341:.\Generated_Source\PSoC4/UART.c ****     #endif /* !defined (CY_REMOVE_UART_CUSTOM_INTR_HANDLER) */
 342:.\Generated_Source\PSoC4/UART.c ****     }
 343:.\Generated_Source\PSoC4/UART.c **** #endif /* (UART_SCB_IRQ_INTERNAL) */
 344:.\Generated_Source\PSoC4/UART.c **** 
 345:.\Generated_Source\PSoC4/UART.c **** 
 346:.\Generated_Source\PSoC4/UART.c **** /*******************************************************************************
 347:.\Generated_Source\PSoC4/UART.c **** * Function Name: UART_ScbModeEnableIntr
 348:.\Generated_Source\PSoC4/UART.c **** ********************************************************************************
 349:.\Generated_Source\PSoC4/UART.c **** *
 350:.\Generated_Source\PSoC4/UART.c **** * Summary:
 351:.\Generated_Source\PSoC4/UART.c **** *  Enables an interrupt for a specific mode.
 352:.\Generated_Source\PSoC4/UART.c **** *
 353:.\Generated_Source\PSoC4/UART.c **** * Parameters:
 354:.\Generated_Source\PSoC4/UART.c **** *  None
 355:.\Generated_Source\PSoC4/UART.c **** *
 356:.\Generated_Source\PSoC4/UART.c **** * Return:
 357:.\Generated_Source\PSoC4/UART.c **** *  None
 358:.\Generated_Source\PSoC4/UART.c **** *
 359:.\Generated_Source\PSoC4/UART.c **** *******************************************************************************/
 360:.\Generated_Source\PSoC4/UART.c **** static void UART_ScbEnableIntr(void)
 361:.\Generated_Source\PSoC4/UART.c **** {
 362:.\Generated_Source\PSoC4/UART.c **** #if (UART_SCB_IRQ_INTERNAL)
 363:.\Generated_Source\PSoC4/UART.c ****     /* Enable interrupt in NVIC */
 364:.\Generated_Source\PSoC4/UART.c ****     #if (UART_SCB_MODE_UNCONFIG_CONST_CFG)
 365:.\Generated_Source\PSoC4/UART.c ****         if (0u != UART_scbEnableIntr)
 366:.\Generated_Source\PSoC4/UART.c ****         {
 367:.\Generated_Source\PSoC4/UART.c ****             UART_EnableInt();
 368:.\Generated_Source\PSoC4/UART.c ****         }
 369:.\Generated_Source\PSoC4/UART.c **** 
 370:.\Generated_Source\PSoC4/UART.c ****     #else
 371:.\Generated_Source\PSoC4/UART.c ****         UART_EnableInt();
  64              		.loc 1 371 0
  65 000e 0A20     		mov	r0, #10
  66 0010 FFF7FEFF 		bl	CyIntEnable
  67              	.LVL1:
  68              	.LBE13:
  69              	.LBE12:
 167:.\Generated_Source\PSoC4/UART.c **** }
  70              		.loc 1 167 0
  71              		@ sp needed
  72              	.LBB14:
  73              	.LBB15:
 372:.\Generated_Source\PSoC4/UART.c **** 
 373:.\Generated_Source\PSoC4/UART.c ****     #endif /* (UART_SCB_MODE_UNCONFIG_CONST_CFG) */
 374:.\Generated_Source\PSoC4/UART.c **** #endif /* (UART_SCB_IRQ_INTERNAL) */
 375:.\Generated_Source\PSoC4/UART.c **** }
 376:.\Generated_Source\PSoC4/UART.c **** 
 377:.\Generated_Source\PSoC4/UART.c **** 
 378:.\Generated_Source\PSoC4/UART.c **** /*******************************************************************************
 379:.\Generated_Source\PSoC4/UART.c **** * Function Name: UART_ScbModePostEnable
 380:.\Generated_Source\PSoC4/UART.c **** ********************************************************************************
 381:.\Generated_Source\PSoC4/UART.c **** *
 382:.\Generated_Source\PSoC4/UART.c **** * Summary:
ARM GAS  C:\Users\moxon\AppData\Local\Temp\ccjvxkER.s 			page 9


 383:.\Generated_Source\PSoC4/UART.c **** *  Calls the PostEnable function for a specific operation mode.
 384:.\Generated_Source\PSoC4/UART.c **** *
 385:.\Generated_Source\PSoC4/UART.c **** * Parameters:
 386:.\Generated_Source\PSoC4/UART.c **** *  None
 387:.\Generated_Source\PSoC4/UART.c **** *
 388:.\Generated_Source\PSoC4/UART.c **** * Return:
 389:.\Generated_Source\PSoC4/UART.c **** *  None
 390:.\Generated_Source\PSoC4/UART.c **** *
 391:.\Generated_Source\PSoC4/UART.c **** *******************************************************************************/
 392:.\Generated_Source\PSoC4/UART.c **** static void UART_ScbModePostEnable(void)
 393:.\Generated_Source\PSoC4/UART.c **** {
 394:.\Generated_Source\PSoC4/UART.c **** #if (UART_SCB_MODE_UNCONFIG_CONST_CFG)
 395:.\Generated_Source\PSoC4/UART.c **** #if (!UART_CY_SCBIP_V1)
 396:.\Generated_Source\PSoC4/UART.c ****     if (UART_SCB_MODE_SPI_RUNTM_CFG)
 397:.\Generated_Source\PSoC4/UART.c ****     {
 398:.\Generated_Source\PSoC4/UART.c ****         UART_SpiPostEnable();
 399:.\Generated_Source\PSoC4/UART.c ****     }
 400:.\Generated_Source\PSoC4/UART.c ****     else if (UART_SCB_MODE_UART_RUNTM_CFG)
 401:.\Generated_Source\PSoC4/UART.c ****     {
 402:.\Generated_Source\PSoC4/UART.c ****         UART_UartPostEnable();
 403:.\Generated_Source\PSoC4/UART.c ****     }
 404:.\Generated_Source\PSoC4/UART.c ****     else
 405:.\Generated_Source\PSoC4/UART.c ****     {
 406:.\Generated_Source\PSoC4/UART.c ****         /* Unknown mode: do nothing */
 407:.\Generated_Source\PSoC4/UART.c ****     }
 408:.\Generated_Source\PSoC4/UART.c **** #endif /* (!UART_CY_SCBIP_V1) */
 409:.\Generated_Source\PSoC4/UART.c **** 
 410:.\Generated_Source\PSoC4/UART.c **** #elif (UART_SCB_MODE_SPI_CONST_CFG)
 411:.\Generated_Source\PSoC4/UART.c ****     UART_SpiPostEnable();
 412:.\Generated_Source\PSoC4/UART.c **** 
 413:.\Generated_Source\PSoC4/UART.c **** #elif (UART_SCB_MODE_UART_CONST_CFG)
 414:.\Generated_Source\PSoC4/UART.c ****     UART_UartPostEnable();
  74              		.loc 1 414 0
  75 0014 FFF7FEFF 		bl	UART_UartPostEnable
  76              	.LVL2:
  77              	.LBE15:
  78              	.LBE14:
 167:.\Generated_Source\PSoC4/UART.c **** }
  79              		.loc 1 167 0
  80 0018 08BD     		pop	{r3, pc}
  81              	.L4:
  82 001a C046     		.align	2
  83              	.L3:
  84 001c 00000640 		.word	1074135040
  85              		.cfi_endproc
  86              	.LFE1:
  87              		.size	UART_Enable, .-UART_Enable
  88              		.section	.text.UART_Start,"ax",%progbits
  89              		.align	1
  90              		.global	UART_Start
  91              		.code	16
  92              		.thumb_func
  93              		.type	UART_Start, %function
  94              	UART_Start:
  95              	.LFB2:
 193:.\Generated_Source\PSoC4/UART.c **** {
  96              		.loc 1 193 0
ARM GAS  C:\Users\moxon\AppData\Local\Temp\ccjvxkER.s 			page 10


  97              		.cfi_startproc
  98 0000 10B5     		push	{r4, lr}
  99              		.cfi_def_cfa_offset 8
 100              		.cfi_offset 4, -8
 101              		.cfi_offset 14, -4
 194:.\Generated_Source\PSoC4/UART.c ****     if (0u == UART_initVar)
 102              		.loc 1 194 0
 103 0002 054C     		ldr	r4, .L8
 104 0004 2378     		ldrb	r3, [r4]
 105 0006 002B     		cmp	r3, #0
 106 0008 03D1     		bne	.L6
 107              	.LBB16:
 108              	.LBB17:
 121:.\Generated_Source\PSoC4/UART.c ****     UART_UartInit();
 109              		.loc 1 121 0
 110 000a FFF7FEFF 		bl	UART_UartInit
 111              	.LVL3:
 112              	.LBE17:
 113              	.LBE16:
 197:.\Generated_Source\PSoC4/UART.c ****         UART_initVar = 1u; /* Component was initialized */
 114              		.loc 1 197 0
 115 000e 0123     		mov	r3, #1
 116 0010 2370     		strb	r3, [r4]
 117              	.L6:
 200:.\Generated_Source\PSoC4/UART.c ****     UART_Enable();
 118              		.loc 1 200 0
 119 0012 FFF7FEFF 		bl	UART_Enable
 120              	.LVL4:
 201:.\Generated_Source\PSoC4/UART.c **** }
 121              		.loc 1 201 0
 122              		@ sp needed
 123 0016 10BD     		pop	{r4, pc}
 124              	.L9:
 125              		.align	2
 126              	.L8:
 127 0018 00000000 		.word	.LANCHOR0
 128              		.cfi_endproc
 129              	.LFE2:
 130              		.size	UART_Start, .-UART_Start
 131              		.section	.text.UART_Stop,"ax",%progbits
 132              		.align	1
 133              		.global	UART_Stop
 134              		.code	16
 135              		.thumb_func
 136              		.type	UART_Stop, %function
 137              	UART_Stop:
 138              	.LFB3:
 222:.\Generated_Source\PSoC4/UART.c **** {
 139              		.loc 1 222 0
 140              		.cfi_startproc
 141 0000 08B5     		push	{r3, lr}
 142              		.cfi_def_cfa_offset 8
 143              		.cfi_offset 3, -8
 144              		.cfi_offset 14, -4
 224:.\Generated_Source\PSoC4/UART.c ****     UART_DisableInt();
 145              		.loc 1 224 0
 146 0002 0A20     		mov	r0, #10
ARM GAS  C:\Users\moxon\AppData\Local\Temp\ccjvxkER.s 			page 11


 147 0004 FFF7FEFF 		bl	CyIntDisable
 148              	.LVL5:
 149              	.LBB18:
 150              	.LBB19:
 415:.\Generated_Source\PSoC4/UART.c **** 
 416:.\Generated_Source\PSoC4/UART.c **** #else
 417:.\Generated_Source\PSoC4/UART.c ****     /* Unknown mode: do nothing */
 418:.\Generated_Source\PSoC4/UART.c **** #endif /* (UART_SCB_MODE_UNCONFIG_CONST_CFG) */
 419:.\Generated_Source\PSoC4/UART.c **** }
 420:.\Generated_Source\PSoC4/UART.c **** 
 421:.\Generated_Source\PSoC4/UART.c **** 
 422:.\Generated_Source\PSoC4/UART.c **** /*******************************************************************************
 423:.\Generated_Source\PSoC4/UART.c **** * Function Name: UART_ScbModeStop
 424:.\Generated_Source\PSoC4/UART.c **** ********************************************************************************
 425:.\Generated_Source\PSoC4/UART.c **** *
 426:.\Generated_Source\PSoC4/UART.c **** * Summary:
 427:.\Generated_Source\PSoC4/UART.c **** *  Calls the Stop function for a specific operation mode.
 428:.\Generated_Source\PSoC4/UART.c **** *
 429:.\Generated_Source\PSoC4/UART.c **** * Parameters:
 430:.\Generated_Source\PSoC4/UART.c **** *  None
 431:.\Generated_Source\PSoC4/UART.c **** *
 432:.\Generated_Source\PSoC4/UART.c **** * Return:
 433:.\Generated_Source\PSoC4/UART.c **** *  None
 434:.\Generated_Source\PSoC4/UART.c **** *
 435:.\Generated_Source\PSoC4/UART.c **** *******************************************************************************/
 436:.\Generated_Source\PSoC4/UART.c **** static void UART_ScbModeStop(void)
 437:.\Generated_Source\PSoC4/UART.c **** {
 438:.\Generated_Source\PSoC4/UART.c **** #if (UART_SCB_MODE_UNCONFIG_CONST_CFG)
 439:.\Generated_Source\PSoC4/UART.c ****     if (UART_SCB_MODE_I2C_RUNTM_CFG)
 440:.\Generated_Source\PSoC4/UART.c ****     {
 441:.\Generated_Source\PSoC4/UART.c ****         UART_I2CStop();
 442:.\Generated_Source\PSoC4/UART.c ****     }
 443:.\Generated_Source\PSoC4/UART.c ****     else if (UART_SCB_MODE_EZI2C_RUNTM_CFG)
 444:.\Generated_Source\PSoC4/UART.c ****     {
 445:.\Generated_Source\PSoC4/UART.c ****         UART_EzI2CStop();
 446:.\Generated_Source\PSoC4/UART.c ****     }
 447:.\Generated_Source\PSoC4/UART.c **** #if (!UART_CY_SCBIP_V1)
 448:.\Generated_Source\PSoC4/UART.c ****     else if (UART_SCB_MODE_SPI_RUNTM_CFG)
 449:.\Generated_Source\PSoC4/UART.c ****     {
 450:.\Generated_Source\PSoC4/UART.c ****         UART_SpiStop();
 451:.\Generated_Source\PSoC4/UART.c ****     }
 452:.\Generated_Source\PSoC4/UART.c ****     else if (UART_SCB_MODE_UART_RUNTM_CFG)
 453:.\Generated_Source\PSoC4/UART.c ****     {
 454:.\Generated_Source\PSoC4/UART.c ****         UART_UartStop();
 455:.\Generated_Source\PSoC4/UART.c ****     }
 456:.\Generated_Source\PSoC4/UART.c **** #endif /* (!UART_CY_SCBIP_V1) */
 457:.\Generated_Source\PSoC4/UART.c ****     else
 458:.\Generated_Source\PSoC4/UART.c ****     {
 459:.\Generated_Source\PSoC4/UART.c ****         /* Unknown mode: do nothing */
 460:.\Generated_Source\PSoC4/UART.c ****     }
 461:.\Generated_Source\PSoC4/UART.c **** #elif (UART_SCB_MODE_I2C_CONST_CFG)
 462:.\Generated_Source\PSoC4/UART.c ****     UART_I2CStop();
 463:.\Generated_Source\PSoC4/UART.c **** 
 464:.\Generated_Source\PSoC4/UART.c **** #elif (UART_SCB_MODE_EZI2C_CONST_CFG)
 465:.\Generated_Source\PSoC4/UART.c ****     UART_EzI2CStop();
 466:.\Generated_Source\PSoC4/UART.c **** 
 467:.\Generated_Source\PSoC4/UART.c **** #elif (UART_SCB_MODE_SPI_CONST_CFG)
ARM GAS  C:\Users\moxon\AppData\Local\Temp\ccjvxkER.s 			page 12


 468:.\Generated_Source\PSoC4/UART.c ****     UART_SpiStop();
 469:.\Generated_Source\PSoC4/UART.c **** 
 470:.\Generated_Source\PSoC4/UART.c **** #elif (UART_SCB_MODE_UART_CONST_CFG)
 471:.\Generated_Source\PSoC4/UART.c ****     UART_UartStop();
 151              		.loc 1 471 0
 152 0008 FFF7FEFF 		bl	UART_UartStop
 153              	.LVL6:
 154              	.LBE19:
 155              	.LBE18:
 231:.\Generated_Source\PSoC4/UART.c ****     UART_CTRL_REG &= (uint32) ~UART_CTRL_ENABLED;
 156              		.loc 1 231 0
 157 000c 054B     		ldr	r3, .L11
 244:.\Generated_Source\PSoC4/UART.c ****     UART_ClearPendingInt();
 158              		.loc 1 244 0
 159 000e 0A20     		mov	r0, #10
 231:.\Generated_Source\PSoC4/UART.c ****     UART_CTRL_REG &= (uint32) ~UART_CTRL_ENABLED;
 160              		.loc 1 231 0
 161 0010 1A68     		ldr	r2, [r3]
 246:.\Generated_Source\PSoC4/UART.c **** }
 162              		.loc 1 246 0
 163              		@ sp needed
 231:.\Generated_Source\PSoC4/UART.c ****     UART_CTRL_REG &= (uint32) ~UART_CTRL_ENABLED;
 164              		.loc 1 231 0
 165 0012 5200     		lsl	r2, r2, #1
 166 0014 5208     		lsr	r2, r2, #1
 167 0016 1A60     		str	r2, [r3]
 241:.\Generated_Source\PSoC4/UART.c ****     UART_SetTxInterruptMode(UART_NO_INTR_SOURCES);
 168              		.loc 1 241 0
 169 0018 034B     		ldr	r3, .L11+4
 170 001a 0022     		mov	r2, #0
 171 001c 1A60     		str	r2, [r3]
 244:.\Generated_Source\PSoC4/UART.c ****     UART_ClearPendingInt();
 172              		.loc 1 244 0
 173 001e FFF7FEFF 		bl	CyIntClearPending
 174              	.LVL7:
 246:.\Generated_Source\PSoC4/UART.c **** }
 175              		.loc 1 246 0
 176 0022 08BD     		pop	{r3, pc}
 177              	.L12:
 178              		.align	2
 179              	.L11:
 180 0024 00000640 		.word	1074135040
 181 0028 880F0640 		.word	1074139016
 182              		.cfi_endproc
 183              	.LFE3:
 184              		.size	UART_Stop, .-UART_Stop
 185              		.section	.text.UART_SetRxFifoLevel,"ax",%progbits
 186              		.align	1
 187              		.global	UART_SetRxFifoLevel
 188              		.code	16
 189              		.thumb_func
 190              		.type	UART_SetRxFifoLevel, %function
 191              	UART_SetRxFifoLevel:
 192              	.LFB4:
 267:.\Generated_Source\PSoC4/UART.c **** {
 193              		.loc 1 267 0
 194              		.cfi_startproc
ARM GAS  C:\Users\moxon\AppData\Local\Temp\ccjvxkER.s 			page 13


 195              	.LVL8:
 270:.\Generated_Source\PSoC4/UART.c ****     rxFifoCtrl = UART_RX_FIFO_CTRL_REG;
 196              		.loc 1 270 0
 197 0000 034B     		ldr	r3, .L14
 272:.\Generated_Source\PSoC4/UART.c ****     rxFifoCtrl &= ((uint32) ~UART_RX_FIFO_CTRL_TRIGGER_LEVEL_MASK); /* Clear level mask bits */
 198              		.loc 1 272 0
 199 0002 0722     		mov	r2, #7
 270:.\Generated_Source\PSoC4/UART.c ****     rxFifoCtrl = UART_RX_FIFO_CTRL_REG;
 200              		.loc 1 270 0
 201 0004 1968     		ldr	r1, [r3]
 202              	.LVL9:
 276:.\Generated_Source\PSoC4/UART.c **** }
 203              		.loc 1 276 0
 204              		@ sp needed
 272:.\Generated_Source\PSoC4/UART.c ****     rxFifoCtrl &= ((uint32) ~UART_RX_FIFO_CTRL_TRIGGER_LEVEL_MASK); /* Clear level mask bits */
 205              		.loc 1 272 0
 206 0006 9143     		bic	r1, r2
 207              	.LVL10:
 273:.\Generated_Source\PSoC4/UART.c ****     rxFifoCtrl |= ((uint32) (UART_RX_FIFO_CTRL_TRIGGER_LEVEL_MASK & level));
 208              		.loc 1 273 0
 209 0008 0240     		and	r2, r0
 210 000a 0A43     		orr	r2, r1
 211              	.LVL11:
 275:.\Generated_Source\PSoC4/UART.c ****     UART_RX_FIFO_CTRL_REG = rxFifoCtrl;
 212              		.loc 1 275 0
 213 000c 1A60     		str	r2, [r3]
 276:.\Generated_Source\PSoC4/UART.c **** }
 214              		.loc 1 276 0
 215 000e 7047     		bx	lr
 216              	.L15:
 217              		.align	2
 218              	.L14:
 219 0010 04030640 		.word	1074135812
 220              		.cfi_endproc
 221              	.LFE4:
 222              		.size	UART_SetRxFifoLevel, .-UART_SetRxFifoLevel
 223              		.section	.text.UART_SetTxFifoLevel,"ax",%progbits
 224              		.align	1
 225              		.global	UART_SetTxFifoLevel
 226              		.code	16
 227              		.thumb_func
 228              		.type	UART_SetTxFifoLevel, %function
 229              	UART_SetTxFifoLevel:
 230              	.LFB5:
 297:.\Generated_Source\PSoC4/UART.c **** {
 231              		.loc 1 297 0
 232              		.cfi_startproc
 233              	.LVL12:
 300:.\Generated_Source\PSoC4/UART.c ****     txFifoCtrl = UART_TX_FIFO_CTRL_REG;
 234              		.loc 1 300 0
 235 0000 034B     		ldr	r3, .L17
 302:.\Generated_Source\PSoC4/UART.c ****     txFifoCtrl &= ((uint32) ~UART_TX_FIFO_CTRL_TRIGGER_LEVEL_MASK); /* Clear level mask bits */
 236              		.loc 1 302 0
 237 0002 0722     		mov	r2, #7
 300:.\Generated_Source\PSoC4/UART.c ****     txFifoCtrl = UART_TX_FIFO_CTRL_REG;
 238              		.loc 1 300 0
 239 0004 1968     		ldr	r1, [r3]
ARM GAS  C:\Users\moxon\AppData\Local\Temp\ccjvxkER.s 			page 14


 240              	.LVL13:
 306:.\Generated_Source\PSoC4/UART.c **** }
 241              		.loc 1 306 0
 242              		@ sp needed
 302:.\Generated_Source\PSoC4/UART.c ****     txFifoCtrl &= ((uint32) ~UART_TX_FIFO_CTRL_TRIGGER_LEVEL_MASK); /* Clear level mask bits */
 243              		.loc 1 302 0
 244 0006 9143     		bic	r1, r2
 245              	.LVL14:
 303:.\Generated_Source\PSoC4/UART.c ****     txFifoCtrl |= ((uint32) (UART_TX_FIFO_CTRL_TRIGGER_LEVEL_MASK & level));
 246              		.loc 1 303 0
 247 0008 0240     		and	r2, r0
 248 000a 0A43     		orr	r2, r1
 249              	.LVL15:
 305:.\Generated_Source\PSoC4/UART.c ****     UART_TX_FIFO_CTRL_REG = txFifoCtrl;
 250              		.loc 1 305 0
 251 000c 1A60     		str	r2, [r3]
 306:.\Generated_Source\PSoC4/UART.c **** }
 252              		.loc 1 306 0
 253 000e 7047     		bx	lr
 254              	.L18:
 255              		.align	2
 256              	.L17:
 257 0010 04020640 		.word	1074135556
 258              		.cfi_endproc
 259              	.LFE5:
 260              		.size	UART_SetTxFifoLevel, .-UART_SetTxFifoLevel
 261              		.section	.text.UART_SetCustomInterruptHandler,"ax",%progbits
 262              		.align	1
 263              		.global	UART_SetCustomInterruptHandler
 264              		.code	16
 265              		.thumb_func
 266              		.type	UART_SetCustomInterruptHandler, %function
 267              	UART_SetCustomInterruptHandler:
 268              	.LFB6:
 333:.\Generated_Source\PSoC4/UART.c ****     {
 269              		.loc 1 333 0
 270              		.cfi_startproc
 271              	.LVL16:
 335:.\Generated_Source\PSoC4/UART.c ****         UART_customIntrHandler = func; /* Register interrupt handler */
 272              		.loc 1 335 0
 273 0000 014B     		ldr	r3, .L20
 342:.\Generated_Source\PSoC4/UART.c ****     }
 274              		.loc 1 342 0
 275              		@ sp needed
 335:.\Generated_Source\PSoC4/UART.c ****         UART_customIntrHandler = func; /* Register interrupt handler */
 276              		.loc 1 335 0
 277 0002 5860     		str	r0, [r3, #4]
 342:.\Generated_Source\PSoC4/UART.c ****     }
 278              		.loc 1 342 0
 279 0004 7047     		bx	lr
 280              	.L21:
 281 0006 C046     		.align	2
 282              	.L20:
 283 0008 00000000 		.word	.LANCHOR0
 284              		.cfi_endproc
 285              	.LFE6:
 286              		.size	UART_SetCustomInterruptHandler, .-UART_SetCustomInterruptHandler
ARM GAS  C:\Users\moxon\AppData\Local\Temp\ccjvxkER.s 			page 15


 287              		.section	.text.UART_I2CSlaveNackGeneration,"ax",%progbits
 288              		.align	1
 289              		.global	UART_I2CSlaveNackGeneration
 290              		.code	16
 291              		.thumb_func
 292              		.type	UART_I2CSlaveNackGeneration, %function
 293              	UART_I2CSlaveNackGeneration:
 294              	.LFB10:
 472:.\Generated_Source\PSoC4/UART.c **** 
 473:.\Generated_Source\PSoC4/UART.c **** #else
 474:.\Generated_Source\PSoC4/UART.c ****     /* Unknown mode: do nothing */
 475:.\Generated_Source\PSoC4/UART.c **** #endif /* (UART_SCB_MODE_UNCONFIG_CONST_CFG) */
 476:.\Generated_Source\PSoC4/UART.c **** }
 477:.\Generated_Source\PSoC4/UART.c **** 
 478:.\Generated_Source\PSoC4/UART.c **** 
 479:.\Generated_Source\PSoC4/UART.c **** #if (UART_SCB_MODE_UNCONFIG_CONST_CFG)
 480:.\Generated_Source\PSoC4/UART.c ****     /*******************************************************************************
 481:.\Generated_Source\PSoC4/UART.c ****     * Function Name: UART_SetPins
 482:.\Generated_Source\PSoC4/UART.c ****     ********************************************************************************
 483:.\Generated_Source\PSoC4/UART.c ****     *
 484:.\Generated_Source\PSoC4/UART.c ****     * Summary:
 485:.\Generated_Source\PSoC4/UART.c ****     *  Sets the pins settings accordingly to the selected operation mode.
 486:.\Generated_Source\PSoC4/UART.c ****     *  Only available in the Unconfigured operation mode. The mode specific
 487:.\Generated_Source\PSoC4/UART.c ****     *  initialization function calls it.
 488:.\Generated_Source\PSoC4/UART.c ****     *  Pins configuration is set by PSoC Creator when a specific mode of operation
 489:.\Generated_Source\PSoC4/UART.c ****     *  is selected in design time.
 490:.\Generated_Source\PSoC4/UART.c ****     *
 491:.\Generated_Source\PSoC4/UART.c ****     * Parameters:
 492:.\Generated_Source\PSoC4/UART.c ****     *  mode:      Mode of SCB operation.
 493:.\Generated_Source\PSoC4/UART.c ****     *  subMode:   Sub-mode of SCB operation. It is only required for SPI and UART
 494:.\Generated_Source\PSoC4/UART.c ****     *             modes.
 495:.\Generated_Source\PSoC4/UART.c ****     *  uartEnableMask: enables TX or RX direction and RTS and CTS signals.
 496:.\Generated_Source\PSoC4/UART.c ****     *
 497:.\Generated_Source\PSoC4/UART.c ****     * Return:
 498:.\Generated_Source\PSoC4/UART.c ****     *  None
 499:.\Generated_Source\PSoC4/UART.c ****     *
 500:.\Generated_Source\PSoC4/UART.c ****     *******************************************************************************/
 501:.\Generated_Source\PSoC4/UART.c ****     void UART_SetPins(uint32 mode, uint32 subMode, uint32 uartEnableMask)
 502:.\Generated_Source\PSoC4/UART.c ****     {
 503:.\Generated_Source\PSoC4/UART.c ****         uint32 hsiomSel [UART_SCB_PINS_NUMBER];
 504:.\Generated_Source\PSoC4/UART.c ****         uint32 pinsDm   [UART_SCB_PINS_NUMBER];
 505:.\Generated_Source\PSoC4/UART.c **** 
 506:.\Generated_Source\PSoC4/UART.c ****     #if (!UART_CY_SCBIP_V1)
 507:.\Generated_Source\PSoC4/UART.c ****         uint32 pinsInBuf = 0u;
 508:.\Generated_Source\PSoC4/UART.c ****     #endif /* (!UART_CY_SCBIP_V1) */
 509:.\Generated_Source\PSoC4/UART.c **** 
 510:.\Generated_Source\PSoC4/UART.c ****         uint32 i;
 511:.\Generated_Source\PSoC4/UART.c **** 
 512:.\Generated_Source\PSoC4/UART.c ****         /* Set default HSIOM to GPIO and Drive Mode to Analog Hi-Z */
 513:.\Generated_Source\PSoC4/UART.c ****         for (i = 0u; i < UART_SCB_PINS_NUMBER; i++)
 514:.\Generated_Source\PSoC4/UART.c ****         {
 515:.\Generated_Source\PSoC4/UART.c ****             hsiomSel[i]  = UART_HSIOM_DEF_SEL;
 516:.\Generated_Source\PSoC4/UART.c ****             pinsDm[i]    = UART_PIN_DM_ALG_HIZ;
 517:.\Generated_Source\PSoC4/UART.c ****         }
 518:.\Generated_Source\PSoC4/UART.c **** 
 519:.\Generated_Source\PSoC4/UART.c ****         if ((UART_SCB_MODE_I2C   == mode) ||
 520:.\Generated_Source\PSoC4/UART.c ****            (UART_SCB_MODE_EZI2C == mode))
ARM GAS  C:\Users\moxon\AppData\Local\Temp\ccjvxkER.s 			page 16


 521:.\Generated_Source\PSoC4/UART.c ****         {
 522:.\Generated_Source\PSoC4/UART.c ****             hsiomSel[UART_RX_SCL_MOSI_PIN_INDEX] = UART_HSIOM_I2C_SEL;
 523:.\Generated_Source\PSoC4/UART.c ****             hsiomSel[UART_TX_SDA_MISO_PIN_INDEX] = UART_HSIOM_I2C_SEL;
 524:.\Generated_Source\PSoC4/UART.c **** 
 525:.\Generated_Source\PSoC4/UART.c ****             pinsDm[UART_RX_SCL_MOSI_PIN_INDEX] = UART_PIN_DM_OD_LO;
 526:.\Generated_Source\PSoC4/UART.c ****             pinsDm[UART_TX_SDA_MISO_PIN_INDEX] = UART_PIN_DM_OD_LO;
 527:.\Generated_Source\PSoC4/UART.c ****         }
 528:.\Generated_Source\PSoC4/UART.c ****     #if (!UART_CY_SCBIP_V1)
 529:.\Generated_Source\PSoC4/UART.c ****         else if (UART_SCB_MODE_SPI == mode)
 530:.\Generated_Source\PSoC4/UART.c ****         {
 531:.\Generated_Source\PSoC4/UART.c ****             hsiomSel[UART_RX_SCL_MOSI_PIN_INDEX] = UART_HSIOM_SPI_SEL;
 532:.\Generated_Source\PSoC4/UART.c ****             hsiomSel[UART_TX_SDA_MISO_PIN_INDEX] = UART_HSIOM_SPI_SEL;
 533:.\Generated_Source\PSoC4/UART.c ****             hsiomSel[UART_SCLK_PIN_INDEX] = UART_HSIOM_SPI_SEL;
 534:.\Generated_Source\PSoC4/UART.c **** 
 535:.\Generated_Source\PSoC4/UART.c ****             if (UART_SPI_SLAVE == subMode)
 536:.\Generated_Source\PSoC4/UART.c ****             {
 537:.\Generated_Source\PSoC4/UART.c ****                 /* Slave */
 538:.\Generated_Source\PSoC4/UART.c ****                 pinsDm[UART_RX_SCL_MOSI_PIN_INDEX] = UART_PIN_DM_DIG_HIZ;
 539:.\Generated_Source\PSoC4/UART.c ****                 pinsDm[UART_TX_SDA_MISO_PIN_INDEX] = UART_PIN_DM_STRONG;
 540:.\Generated_Source\PSoC4/UART.c ****                 pinsDm[UART_SCLK_PIN_INDEX] = UART_PIN_DM_DIG_HIZ;
 541:.\Generated_Source\PSoC4/UART.c **** 
 542:.\Generated_Source\PSoC4/UART.c ****             #if (UART_SS0_PIN)
 543:.\Generated_Source\PSoC4/UART.c ****                 /* Only SS0 is valid choice for Slave */
 544:.\Generated_Source\PSoC4/UART.c ****                 hsiomSel[UART_SS0_PIN_INDEX] = UART_HSIOM_SPI_SEL;
 545:.\Generated_Source\PSoC4/UART.c ****                 pinsDm  [UART_SS0_PIN_INDEX] = UART_PIN_DM_DIG_HIZ;
 546:.\Generated_Source\PSoC4/UART.c ****             #endif /* (UART_SS0_PIN) */
 547:.\Generated_Source\PSoC4/UART.c **** 
 548:.\Generated_Source\PSoC4/UART.c ****             #if (UART_TX_SDA_MISO_PIN)
 549:.\Generated_Source\PSoC4/UART.c ****                 /* Disable input buffer */
 550:.\Generated_Source\PSoC4/UART.c ****                  pinsInBuf |= UART_TX_SDA_MISO_PIN_MASK;
 551:.\Generated_Source\PSoC4/UART.c ****             #endif /* (UART_TX_SDA_MISO_PIN) */
 552:.\Generated_Source\PSoC4/UART.c ****             }
 553:.\Generated_Source\PSoC4/UART.c ****             else /* (Master) */
 554:.\Generated_Source\PSoC4/UART.c ****             {
 555:.\Generated_Source\PSoC4/UART.c ****                 pinsDm[UART_RX_SCL_MOSI_PIN_INDEX] = UART_PIN_DM_STRONG;
 556:.\Generated_Source\PSoC4/UART.c ****                 pinsDm[UART_TX_SDA_MISO_PIN_INDEX] = UART_PIN_DM_DIG_HIZ;
 557:.\Generated_Source\PSoC4/UART.c ****                 pinsDm[UART_SCLK_PIN_INDEX] = UART_PIN_DM_STRONG;
 558:.\Generated_Source\PSoC4/UART.c **** 
 559:.\Generated_Source\PSoC4/UART.c ****             #if (UART_SS0_PIN)
 560:.\Generated_Source\PSoC4/UART.c ****                 hsiomSel [UART_SS0_PIN_INDEX] = UART_HSIOM_SPI_SEL;
 561:.\Generated_Source\PSoC4/UART.c ****                 pinsDm   [UART_SS0_PIN_INDEX] = UART_PIN_DM_STRONG;
 562:.\Generated_Source\PSoC4/UART.c ****                 pinsInBuf |= UART_SS0_PIN_MASK;
 563:.\Generated_Source\PSoC4/UART.c ****             #endif /* (UART_SS0_PIN) */
 564:.\Generated_Source\PSoC4/UART.c **** 
 565:.\Generated_Source\PSoC4/UART.c ****             #if (UART_SS1_PIN)
 566:.\Generated_Source\PSoC4/UART.c ****                 hsiomSel [UART_SS1_PIN_INDEX] = UART_HSIOM_SPI_SEL;
 567:.\Generated_Source\PSoC4/UART.c ****                 pinsDm   [UART_SS1_PIN_INDEX] = UART_PIN_DM_STRONG;
 568:.\Generated_Source\PSoC4/UART.c ****                 pinsInBuf |= UART_SS1_PIN_MASK;
 569:.\Generated_Source\PSoC4/UART.c ****             #endif /* (UART_SS1_PIN) */
 570:.\Generated_Source\PSoC4/UART.c **** 
 571:.\Generated_Source\PSoC4/UART.c ****             #if (UART_SS2_PIN)
 572:.\Generated_Source\PSoC4/UART.c ****                 hsiomSel [UART_SS2_PIN_INDEX] = UART_HSIOM_SPI_SEL;
 573:.\Generated_Source\PSoC4/UART.c ****                 pinsDm   [UART_SS2_PIN_INDEX] = UART_PIN_DM_STRONG;
 574:.\Generated_Source\PSoC4/UART.c ****                 pinsInBuf |= UART_SS2_PIN_MASK;
 575:.\Generated_Source\PSoC4/UART.c ****             #endif /* (UART_SS2_PIN) */
 576:.\Generated_Source\PSoC4/UART.c **** 
 577:.\Generated_Source\PSoC4/UART.c ****             #if (UART_SS3_PIN)
ARM GAS  C:\Users\moxon\AppData\Local\Temp\ccjvxkER.s 			page 17


 578:.\Generated_Source\PSoC4/UART.c ****                 hsiomSel [UART_SS3_PIN_INDEX] = UART_HSIOM_SPI_SEL;
 579:.\Generated_Source\PSoC4/UART.c ****                 pinsDm   [UART_SS3_PIN_INDEX] = UART_PIN_DM_STRONG;
 580:.\Generated_Source\PSoC4/UART.c ****                 pinsInBuf |= UART_SS3_PIN_MASK;
 581:.\Generated_Source\PSoC4/UART.c ****             #endif /* (UART_SS3_PIN) */
 582:.\Generated_Source\PSoC4/UART.c **** 
 583:.\Generated_Source\PSoC4/UART.c ****                 /* Disable input buffers */
 584:.\Generated_Source\PSoC4/UART.c ****             #if (UART_RX_SCL_MOSI_PIN)
 585:.\Generated_Source\PSoC4/UART.c ****                 pinsInBuf |= UART_RX_SCL_MOSI_PIN_MASK;
 586:.\Generated_Source\PSoC4/UART.c ****             #endif /* (UART_RX_SCL_MOSI_PIN) */
 587:.\Generated_Source\PSoC4/UART.c **** 
 588:.\Generated_Source\PSoC4/UART.c ****              #if (UART_RX_WAKE_SCL_MOSI_PIN)
 589:.\Generated_Source\PSoC4/UART.c ****                 pinsInBuf |= UART_RX_WAKE_SCL_MOSI_PIN_MASK;
 590:.\Generated_Source\PSoC4/UART.c ****             #endif /* (UART_RX_WAKE_SCL_MOSI_PIN) */
 591:.\Generated_Source\PSoC4/UART.c **** 
 592:.\Generated_Source\PSoC4/UART.c ****             #if (UART_SCLK_PIN)
 593:.\Generated_Source\PSoC4/UART.c ****                 pinsInBuf |= UART_SCLK_PIN_MASK;
 594:.\Generated_Source\PSoC4/UART.c ****             #endif /* (UART_SCLK_PIN) */
 595:.\Generated_Source\PSoC4/UART.c ****             }
 596:.\Generated_Source\PSoC4/UART.c ****         }
 597:.\Generated_Source\PSoC4/UART.c ****         else /* UART */
 598:.\Generated_Source\PSoC4/UART.c ****         {
 599:.\Generated_Source\PSoC4/UART.c ****             if (UART_UART_MODE_SMARTCARD == subMode)
 600:.\Generated_Source\PSoC4/UART.c ****             {
 601:.\Generated_Source\PSoC4/UART.c ****                 /* SmartCard */
 602:.\Generated_Source\PSoC4/UART.c ****                 hsiomSel[UART_TX_SDA_MISO_PIN_INDEX] = UART_HSIOM_UART_SEL;
 603:.\Generated_Source\PSoC4/UART.c ****                 pinsDm  [UART_TX_SDA_MISO_PIN_INDEX] = UART_PIN_DM_OD_LO;
 604:.\Generated_Source\PSoC4/UART.c ****             }
 605:.\Generated_Source\PSoC4/UART.c ****             else /* Standard or IrDA */
 606:.\Generated_Source\PSoC4/UART.c ****             {
 607:.\Generated_Source\PSoC4/UART.c ****                 if (0u != (UART_UART_RX_PIN_ENABLE & uartEnableMask))
 608:.\Generated_Source\PSoC4/UART.c ****                 {
 609:.\Generated_Source\PSoC4/UART.c ****                     hsiomSel[UART_RX_SCL_MOSI_PIN_INDEX] = UART_HSIOM_UART_SEL;
 610:.\Generated_Source\PSoC4/UART.c ****                     pinsDm  [UART_RX_SCL_MOSI_PIN_INDEX] = UART_PIN_DM_DIG_HIZ;
 611:.\Generated_Source\PSoC4/UART.c ****                 }
 612:.\Generated_Source\PSoC4/UART.c **** 
 613:.\Generated_Source\PSoC4/UART.c ****                 if (0u != (UART_UART_TX_PIN_ENABLE & uartEnableMask))
 614:.\Generated_Source\PSoC4/UART.c ****                 {
 615:.\Generated_Source\PSoC4/UART.c ****                     hsiomSel[UART_TX_SDA_MISO_PIN_INDEX] = UART_HSIOM_UART_SEL;
 616:.\Generated_Source\PSoC4/UART.c ****                     pinsDm  [UART_TX_SDA_MISO_PIN_INDEX] = UART_PIN_DM_STRONG;
 617:.\Generated_Source\PSoC4/UART.c **** 
 618:.\Generated_Source\PSoC4/UART.c ****                 #if (UART_TX_SDA_MISO_PIN)
 619:.\Generated_Source\PSoC4/UART.c ****                      pinsInBuf |= UART_TX_SDA_MISO_PIN_MASK;
 620:.\Generated_Source\PSoC4/UART.c ****                 #endif /* (UART_TX_SDA_MISO_PIN) */
 621:.\Generated_Source\PSoC4/UART.c ****                 }
 622:.\Generated_Source\PSoC4/UART.c **** 
 623:.\Generated_Source\PSoC4/UART.c ****             #if !(UART_CY_SCBIP_V0 || UART_CY_SCBIP_V1)
 624:.\Generated_Source\PSoC4/UART.c ****                 if (UART_UART_MODE_STD == subMode)
 625:.\Generated_Source\PSoC4/UART.c ****                 {
 626:.\Generated_Source\PSoC4/UART.c ****                     if (0u != (UART_UART_CTS_PIN_ENABLE & uartEnableMask))
 627:.\Generated_Source\PSoC4/UART.c ****                     {
 628:.\Generated_Source\PSoC4/UART.c ****                         /* CTS input is multiplexed with SCLK */
 629:.\Generated_Source\PSoC4/UART.c ****                         hsiomSel[UART_SCLK_PIN_INDEX] = UART_HSIOM_UART_SEL;
 630:.\Generated_Source\PSoC4/UART.c ****                         pinsDm  [UART_SCLK_PIN_INDEX] = UART_PIN_DM_DIG_HIZ;
 631:.\Generated_Source\PSoC4/UART.c ****                     }
 632:.\Generated_Source\PSoC4/UART.c **** 
 633:.\Generated_Source\PSoC4/UART.c ****                     if (0u != (UART_UART_RTS_PIN_ENABLE & uartEnableMask))
 634:.\Generated_Source\PSoC4/UART.c ****                     {
ARM GAS  C:\Users\moxon\AppData\Local\Temp\ccjvxkER.s 			page 18


 635:.\Generated_Source\PSoC4/UART.c ****                         /* RTS output is multiplexed with SS0 */
 636:.\Generated_Source\PSoC4/UART.c ****                         hsiomSel[UART_SS0_PIN_INDEX] = UART_HSIOM_UART_SEL;
 637:.\Generated_Source\PSoC4/UART.c ****                         pinsDm  [UART_SS0_PIN_INDEX] = UART_PIN_DM_STRONG;
 638:.\Generated_Source\PSoC4/UART.c **** 
 639:.\Generated_Source\PSoC4/UART.c ****                     #if (UART_SS0_PIN)
 640:.\Generated_Source\PSoC4/UART.c ****                         /* Disable input buffer */
 641:.\Generated_Source\PSoC4/UART.c ****                         pinsInBuf |= UART_SS0_PIN_MASK;
 642:.\Generated_Source\PSoC4/UART.c ****                     #endif /* (UART_SS0_PIN) */
 643:.\Generated_Source\PSoC4/UART.c ****                     }
 644:.\Generated_Source\PSoC4/UART.c ****                 }
 645:.\Generated_Source\PSoC4/UART.c ****             #endif /* !(UART_CY_SCBIP_V0 || UART_CY_SCBIP_V1) */
 646:.\Generated_Source\PSoC4/UART.c ****             }
 647:.\Generated_Source\PSoC4/UART.c ****         }
 648:.\Generated_Source\PSoC4/UART.c ****     #endif /* (!UART_CY_SCBIP_V1) */
 649:.\Generated_Source\PSoC4/UART.c **** 
 650:.\Generated_Source\PSoC4/UART.c ****     /* Configure pins: set HSIOM, DM and InputBufEnable */
 651:.\Generated_Source\PSoC4/UART.c ****     /* Note: the DR register settings do not effect the pin output if HSIOM is other than GPIO */
 652:.\Generated_Source\PSoC4/UART.c **** 
 653:.\Generated_Source\PSoC4/UART.c ****     #if (UART_RX_WAKE_SCL_MOSI_PIN)
 654:.\Generated_Source\PSoC4/UART.c ****         UART_SET_HSIOM_SEL(UART_RX_WAKE_SCL_MOSI_HSIOM_REG,
 655:.\Generated_Source\PSoC4/UART.c ****                                        UART_RX_WAKE_SCL_MOSI_HSIOM_MASK,
 656:.\Generated_Source\PSoC4/UART.c ****                                        UART_RX_WAKE_SCL_MOSI_HSIOM_POS,
 657:.\Generated_Source\PSoC4/UART.c ****                                        hsiomSel[UART_RX_WAKE_SCL_MOSI_PIN_INDEX]);
 658:.\Generated_Source\PSoC4/UART.c **** 
 659:.\Generated_Source\PSoC4/UART.c ****         UART_uart_rx_wake_i2c_scl_spi_mosi_SetDriveMode((uint8)
 660:.\Generated_Source\PSoC4/UART.c ****                                                                pinsDm[UART_RX_WAKE_SCL_MOSI_PIN_IND
 661:.\Generated_Source\PSoC4/UART.c **** 
 662:.\Generated_Source\PSoC4/UART.c ****         UART_SET_INP_DIS(UART_uart_rx_wake_i2c_scl_spi_mosi_INP_DIS,
 663:.\Generated_Source\PSoC4/UART.c ****                                      UART_uart_rx_wake_i2c_scl_spi_mosi_MASK,
 664:.\Generated_Source\PSoC4/UART.c ****                                      (0u != (pinsInBuf & UART_RX_WAKE_SCL_MOSI_PIN_MASK)));
 665:.\Generated_Source\PSoC4/UART.c **** 
 666:.\Generated_Source\PSoC4/UART.c ****          /* Set interrupt on falling edge */
 667:.\Generated_Source\PSoC4/UART.c ****         UART_SET_INCFG_TYPE(UART_RX_WAKE_SCL_MOSI_INTCFG_REG,
 668:.\Generated_Source\PSoC4/UART.c ****                                         UART_RX_WAKE_SCL_MOSI_INTCFG_TYPE_MASK,
 669:.\Generated_Source\PSoC4/UART.c ****                                         UART_RX_WAKE_SCL_MOSI_INTCFG_TYPE_POS,
 670:.\Generated_Source\PSoC4/UART.c ****                                         UART_INTCFG_TYPE_FALLING_EDGE);
 671:.\Generated_Source\PSoC4/UART.c ****     #endif /* (UART_RX_WAKE_SCL_MOSI_PIN) */
 672:.\Generated_Source\PSoC4/UART.c **** 
 673:.\Generated_Source\PSoC4/UART.c ****     #if (UART_RX_SCL_MOSI_PIN)
 674:.\Generated_Source\PSoC4/UART.c ****         UART_SET_HSIOM_SEL(UART_RX_SCL_MOSI_HSIOM_REG,
 675:.\Generated_Source\PSoC4/UART.c ****                                        UART_RX_SCL_MOSI_HSIOM_MASK,
 676:.\Generated_Source\PSoC4/UART.c ****                                        UART_RX_SCL_MOSI_HSIOM_POS,
 677:.\Generated_Source\PSoC4/UART.c ****                                         hsiomSel[UART_RX_SCL_MOSI_PIN_INDEX]);
 678:.\Generated_Source\PSoC4/UART.c **** 
 679:.\Generated_Source\PSoC4/UART.c ****         UART_uart_rx_i2c_scl_spi_mosi_SetDriveMode((uint8) pinsDm[UART_RX_SCL_MOSI_PIN_INDEX]);
 680:.\Generated_Source\PSoC4/UART.c **** 
 681:.\Generated_Source\PSoC4/UART.c ****     #if (!UART_CY_SCBIP_V1)
 682:.\Generated_Source\PSoC4/UART.c ****         UART_SET_INP_DIS(UART_uart_rx_i2c_scl_spi_mosi_INP_DIS,
 683:.\Generated_Source\PSoC4/UART.c ****                                      UART_uart_rx_i2c_scl_spi_mosi_MASK,
 684:.\Generated_Source\PSoC4/UART.c ****                                      (0u != (pinsInBuf & UART_RX_SCL_MOSI_PIN_MASK)));
 685:.\Generated_Source\PSoC4/UART.c ****     #endif /* (!UART_CY_SCBIP_V1) */
 686:.\Generated_Source\PSoC4/UART.c ****     #endif /* (UART_RX_SCL_MOSI_PIN) */
 687:.\Generated_Source\PSoC4/UART.c **** 
 688:.\Generated_Source\PSoC4/UART.c ****     #if (UART_TX_SDA_MISO_PIN)
 689:.\Generated_Source\PSoC4/UART.c ****         UART_SET_HSIOM_SEL(UART_TX_SDA_MISO_HSIOM_REG,
 690:.\Generated_Source\PSoC4/UART.c ****                                        UART_TX_SDA_MISO_HSIOM_MASK,
 691:.\Generated_Source\PSoC4/UART.c ****                                        UART_TX_SDA_MISO_HSIOM_POS,
ARM GAS  C:\Users\moxon\AppData\Local\Temp\ccjvxkER.s 			page 19


 692:.\Generated_Source\PSoC4/UART.c ****                                         hsiomSel[UART_TX_SDA_MISO_PIN_INDEX]);
 693:.\Generated_Source\PSoC4/UART.c **** 
 694:.\Generated_Source\PSoC4/UART.c ****         UART_uart_tx_i2c_sda_spi_miso_SetDriveMode((uint8) pinsDm[UART_TX_SDA_MISO_PIN_INDEX]);
 695:.\Generated_Source\PSoC4/UART.c **** 
 696:.\Generated_Source\PSoC4/UART.c ****     #if (!UART_CY_SCBIP_V1)
 697:.\Generated_Source\PSoC4/UART.c ****         UART_SET_INP_DIS(UART_uart_tx_i2c_sda_spi_miso_INP_DIS,
 698:.\Generated_Source\PSoC4/UART.c ****                                      UART_uart_tx_i2c_sda_spi_miso_MASK,
 699:.\Generated_Source\PSoC4/UART.c ****                                     (0u != (pinsInBuf & UART_TX_SDA_MISO_PIN_MASK)));
 700:.\Generated_Source\PSoC4/UART.c ****     #endif /* (!UART_CY_SCBIP_V1) */
 701:.\Generated_Source\PSoC4/UART.c ****     #endif /* (UART_RX_SCL_MOSI_PIN) */
 702:.\Generated_Source\PSoC4/UART.c **** 
 703:.\Generated_Source\PSoC4/UART.c ****     #if (UART_SCLK_PIN)
 704:.\Generated_Source\PSoC4/UART.c ****         UART_SET_HSIOM_SEL(UART_SCLK_HSIOM_REG,
 705:.\Generated_Source\PSoC4/UART.c ****                                        UART_SCLK_HSIOM_MASK,
 706:.\Generated_Source\PSoC4/UART.c ****                                        UART_SCLK_HSIOM_POS,
 707:.\Generated_Source\PSoC4/UART.c ****                                        hsiomSel[UART_SCLK_PIN_INDEX]);
 708:.\Generated_Source\PSoC4/UART.c **** 
 709:.\Generated_Source\PSoC4/UART.c ****         UART_spi_sclk_SetDriveMode((uint8) pinsDm[UART_SCLK_PIN_INDEX]);
 710:.\Generated_Source\PSoC4/UART.c **** 
 711:.\Generated_Source\PSoC4/UART.c ****         UART_SET_INP_DIS(UART_spi_sclk_INP_DIS,
 712:.\Generated_Source\PSoC4/UART.c ****                                      UART_spi_sclk_MASK,
 713:.\Generated_Source\PSoC4/UART.c ****                                      (0u != (pinsInBuf & UART_SCLK_PIN_MASK)));
 714:.\Generated_Source\PSoC4/UART.c ****     #endif /* (UART_SCLK_PIN) */
 715:.\Generated_Source\PSoC4/UART.c **** 
 716:.\Generated_Source\PSoC4/UART.c ****     #if (UART_SS0_PIN)
 717:.\Generated_Source\PSoC4/UART.c ****         UART_SET_HSIOM_SEL(UART_SS0_HSIOM_REG,
 718:.\Generated_Source\PSoC4/UART.c ****                                        UART_SS0_HSIOM_MASK,
 719:.\Generated_Source\PSoC4/UART.c ****                                        UART_SS0_HSIOM_POS,
 720:.\Generated_Source\PSoC4/UART.c ****                                        hsiomSel[UART_SS0_PIN_INDEX]);
 721:.\Generated_Source\PSoC4/UART.c **** 
 722:.\Generated_Source\PSoC4/UART.c ****         UART_spi_ss0_SetDriveMode((uint8) pinsDm[UART_SS0_PIN_INDEX]);
 723:.\Generated_Source\PSoC4/UART.c **** 
 724:.\Generated_Source\PSoC4/UART.c ****         UART_SET_INP_DIS(UART_spi_ss0_INP_DIS,
 725:.\Generated_Source\PSoC4/UART.c ****                                      UART_spi_ss0_MASK,
 726:.\Generated_Source\PSoC4/UART.c ****                                      (0u != (pinsInBuf & UART_SS0_PIN_MASK)));
 727:.\Generated_Source\PSoC4/UART.c ****     #endif /* (UART_SS0_PIN) */
 728:.\Generated_Source\PSoC4/UART.c **** 
 729:.\Generated_Source\PSoC4/UART.c ****     #if (UART_SS1_PIN)
 730:.\Generated_Source\PSoC4/UART.c ****         UART_SET_HSIOM_SEL(UART_SS1_HSIOM_REG,
 731:.\Generated_Source\PSoC4/UART.c ****                                        UART_SS1_HSIOM_MASK,
 732:.\Generated_Source\PSoC4/UART.c ****                                        UART_SS1_HSIOM_POS,
 733:.\Generated_Source\PSoC4/UART.c ****                                        hsiomSel[UART_SS1_PIN_INDEX]);
 734:.\Generated_Source\PSoC4/UART.c **** 
 735:.\Generated_Source\PSoC4/UART.c ****         UART_spi_ss1_SetDriveMode((uint8) pinsDm[UART_SS1_PIN_INDEX]);
 736:.\Generated_Source\PSoC4/UART.c **** 
 737:.\Generated_Source\PSoC4/UART.c ****         UART_SET_INP_DIS(UART_spi_ss1_INP_DIS,
 738:.\Generated_Source\PSoC4/UART.c ****                                      UART_spi_ss1_MASK,
 739:.\Generated_Source\PSoC4/UART.c ****                                      (0u != (pinsInBuf & UART_SS1_PIN_MASK)));
 740:.\Generated_Source\PSoC4/UART.c ****     #endif /* (UART_SS1_PIN) */
 741:.\Generated_Source\PSoC4/UART.c **** 
 742:.\Generated_Source\PSoC4/UART.c ****     #if (UART_SS2_PIN)
 743:.\Generated_Source\PSoC4/UART.c ****         UART_SET_HSIOM_SEL(UART_SS2_HSIOM_REG,
 744:.\Generated_Source\PSoC4/UART.c ****                                        UART_SS2_HSIOM_MASK,
 745:.\Generated_Source\PSoC4/UART.c ****                                        UART_SS2_HSIOM_POS,
 746:.\Generated_Source\PSoC4/UART.c ****                                        hsiomSel[UART_SS2_PIN_INDEX]);
 747:.\Generated_Source\PSoC4/UART.c **** 
 748:.\Generated_Source\PSoC4/UART.c ****         UART_spi_ss2_SetDriveMode((uint8) pinsDm[UART_SS2_PIN_INDEX]);
ARM GAS  C:\Users\moxon\AppData\Local\Temp\ccjvxkER.s 			page 20


 749:.\Generated_Source\PSoC4/UART.c **** 
 750:.\Generated_Source\PSoC4/UART.c ****         UART_SET_INP_DIS(UART_spi_ss2_INP_DIS,
 751:.\Generated_Source\PSoC4/UART.c ****                                      UART_spi_ss2_MASK,
 752:.\Generated_Source\PSoC4/UART.c ****                                      (0u != (pinsInBuf & UART_SS2_PIN_MASK)));
 753:.\Generated_Source\PSoC4/UART.c ****     #endif /* (UART_SS2_PIN) */
 754:.\Generated_Source\PSoC4/UART.c **** 
 755:.\Generated_Source\PSoC4/UART.c ****     #if (UART_SS3_PIN)
 756:.\Generated_Source\PSoC4/UART.c ****         UART_SET_HSIOM_SEL(UART_SS3_HSIOM_REG,
 757:.\Generated_Source\PSoC4/UART.c ****                                        UART_SS3_HSIOM_MASK,
 758:.\Generated_Source\PSoC4/UART.c ****                                        UART_SS3_HSIOM_POS,
 759:.\Generated_Source\PSoC4/UART.c ****                                        hsiomSel[UART_SS3_PIN_INDEX]);
 760:.\Generated_Source\PSoC4/UART.c **** 
 761:.\Generated_Source\PSoC4/UART.c ****         UART_spi_ss3_SetDriveMode((uint8) pinsDm[UART_SS3_PIN_INDEX]);
 762:.\Generated_Source\PSoC4/UART.c **** 
 763:.\Generated_Source\PSoC4/UART.c ****         UART_SET_INP_DIS(UART_spi_ss3_INP_DIS,
 764:.\Generated_Source\PSoC4/UART.c ****                                      UART_spi_ss3_MASK,
 765:.\Generated_Source\PSoC4/UART.c ****                                      (0u != (pinsInBuf & UART_SS3_PIN_MASK)));
 766:.\Generated_Source\PSoC4/UART.c ****     #endif /* (UART_SS3_PIN) */
 767:.\Generated_Source\PSoC4/UART.c ****     }
 768:.\Generated_Source\PSoC4/UART.c **** 
 769:.\Generated_Source\PSoC4/UART.c **** #endif /* (UART_SCB_MODE_UNCONFIG_CONST_CFG) */
 770:.\Generated_Source\PSoC4/UART.c **** 
 771:.\Generated_Source\PSoC4/UART.c **** 
 772:.\Generated_Source\PSoC4/UART.c **** #if (UART_CY_SCBIP_V0 || UART_CY_SCBIP_V1)
 773:.\Generated_Source\PSoC4/UART.c ****     /*******************************************************************************
 774:.\Generated_Source\PSoC4/UART.c ****     * Function Name: UART_I2CSlaveNackGeneration
 775:.\Generated_Source\PSoC4/UART.c ****     ********************************************************************************
 776:.\Generated_Source\PSoC4/UART.c ****     *
 777:.\Generated_Source\PSoC4/UART.c ****     * Summary:
 778:.\Generated_Source\PSoC4/UART.c ****     *  Sets command to generate NACK to the address or data.
 779:.\Generated_Source\PSoC4/UART.c ****     *
 780:.\Generated_Source\PSoC4/UART.c ****     * Parameters:
 781:.\Generated_Source\PSoC4/UART.c ****     *  None
 782:.\Generated_Source\PSoC4/UART.c ****     *
 783:.\Generated_Source\PSoC4/UART.c ****     * Return:
 784:.\Generated_Source\PSoC4/UART.c ****     *  None
 785:.\Generated_Source\PSoC4/UART.c ****     *
 786:.\Generated_Source\PSoC4/UART.c ****     *******************************************************************************/
 787:.\Generated_Source\PSoC4/UART.c ****     void UART_I2CSlaveNackGeneration(void)
 788:.\Generated_Source\PSoC4/UART.c ****     {
 295              		.loc 1 788 0
 296              		.cfi_startproc
 789:.\Generated_Source\PSoC4/UART.c ****         /* Check for EC_AM toggle condition: EC_AM and clock stretching for address are enabled */
 790:.\Generated_Source\PSoC4/UART.c ****         if ((0u != (UART_CTRL_REG & UART_CTRL_EC_AM_MODE)) &&
 297              		.loc 1 790 0
 298 0000 0A4B     		ldr	r3, .L27
 299 0002 8022     		mov	r2, #128
 300 0004 1968     		ldr	r1, [r3]
 301 0006 5200     		lsl	r2, r2, #1
 302 0008 1142     		tst	r1, r2
 303 000a 0AD0     		beq	.L23
 791:.\Generated_Source\PSoC4/UART.c ****             (0u == (UART_I2C_CTRL_REG & UART_I2C_CTRL_S_NOT_READY_ADDR_NACK)))
 304              		.loc 1 791 0 discriminator 1
 305 000c 0849     		ldr	r1, .L27+4
 306 000e 0968     		ldr	r1, [r1]
 790:.\Generated_Source\PSoC4/UART.c ****         if ((0u != (UART_CTRL_REG & UART_CTRL_EC_AM_MODE)) &&
 307              		.loc 1 790 0 discriminator 1
ARM GAS  C:\Users\moxon\AppData\Local\Temp\ccjvxkER.s 			page 21


 308 0010 4804     		lsl	r0, r1, #17
 309 0012 06D4     		bmi	.L23
 792:.\Generated_Source\PSoC4/UART.c ****         {
 793:.\Generated_Source\PSoC4/UART.c ****             /* Toggle EC_AM before NACK generation */
 794:.\Generated_Source\PSoC4/UART.c ****             UART_CTRL_REG &= ~UART_CTRL_EC_AM_MODE;
 310              		.loc 1 794 0
 311 0014 1868     		ldr	r0, [r3]
 312 0016 0749     		ldr	r1, .L27+8
 313 0018 0140     		and	r1, r0
 314 001a 1960     		str	r1, [r3]
 795:.\Generated_Source\PSoC4/UART.c ****             UART_CTRL_REG |=  UART_CTRL_EC_AM_MODE;
 315              		.loc 1 795 0
 316 001c 1968     		ldr	r1, [r3]
 317 001e 0A43     		orr	r2, r1
 318 0020 1A60     		str	r2, [r3]
 319              	.L23:
 796:.\Generated_Source\PSoC4/UART.c ****         }
 797:.\Generated_Source\PSoC4/UART.c **** 
 798:.\Generated_Source\PSoC4/UART.c ****         UART_I2C_SLAVE_CMD_REG = UART_I2C_SLAVE_CMD_S_NACK;
 320              		.loc 1 798 0
 321 0022 054B     		ldr	r3, .L27+12
 322 0024 0222     		mov	r2, #2
 323 0026 1A60     		str	r2, [r3]
 799:.\Generated_Source\PSoC4/UART.c ****     }
 324              		.loc 1 799 0
 325              		@ sp needed
 326 0028 7047     		bx	lr
 327              	.L28:
 328 002a C046     		.align	2
 329              	.L27:
 330 002c 00000640 		.word	1074135040
 331 0030 60000640 		.word	1074135136
 332 0034 FFFEFFFF 		.word	-257
 333 0038 6C000640 		.word	1074135148
 334              		.cfi_endproc
 335              	.LFE10:
 336              		.size	UART_I2CSlaveNackGeneration, .-UART_I2CSlaveNackGeneration
 337              		.global	UART_customIntrHandler
 338              		.global	UART_initVar
 339              		.bss
 340              		.align	2
 341              		.set	.LANCHOR0,. + 0
 342              		.type	UART_initVar, %object
 343              		.size	UART_initVar, 1
 344              	UART_initVar:
 345 0000 00       		.space	1
 346 0001 000000   		.space	3
 347              		.type	UART_customIntrHandler, %object
 348              		.size	UART_customIntrHandler, 4
 349              	UART_customIntrHandler:
 350 0004 00000000 		.space	4
 351              		.text
 352              	.Letext0:
 353              		.file 2 "Generated_Source\\PSoC4/cytypes.h"
 354              		.file 3 ".\\Generated_Source\\PSoC4\\UART_SPI_UART_PVT.h"
 355              		.file 4 "Generated_Source\\PSoC4/CyLib.h"