ARM GAS  C:\Users\moxon\AppData\Local\Temp\ccM9MmHX.s 			page 1


   1              		.cpu cortex-m0
   2              		.fpu softvfp
   3              		.eabi_attribute 20, 1
   4              		.eabi_attribute 21, 1
   5              		.eabi_attribute 23, 3
   6              		.eabi_attribute 24, 1
   7              		.eabi_attribute 25, 1
   8              		.eabi_attribute 26, 1
   9              		.eabi_attribute 30, 4
  10              		.eabi_attribute 34, 0
  11              		.eabi_attribute 18, 4
  12              		.code	16
  13              		.file	"CyLib.c"
  14              		.text
  15              	.Ltext0:
  16              		.cfi_sections	.debug_frame
  17              		.section	.text.CySysClkImoStart,"ax",%progbits
  18              		.align	1
  19              		.global	CySysClkImoStart
  20              		.code	16
  21              		.thumb_func
  22              		.type	CySysClkImoStart, %function
  23              	CySysClkImoStart:
  24              	.LFB0:
  25              		.file 1 ".\\Generated_Source\\PSoC4\\CyLib.c"
   1:.\Generated_Source\PSoC4/CyLib.c **** /*******************************************************************************
   2:.\Generated_Source\PSoC4/CyLib.c **** * File Name: CyLib.c
   3:.\Generated_Source\PSoC4/CyLib.c **** * Version 5.10
   4:.\Generated_Source\PSoC4/CyLib.c **** *
   5:.\Generated_Source\PSoC4/CyLib.c **** *  Description:
   6:.\Generated_Source\PSoC4/CyLib.c **** *   Provides a system API for the clocking, interrupts, and watchdog timer.
   7:.\Generated_Source\PSoC4/CyLib.c **** *
   8:.\Generated_Source\PSoC4/CyLib.c **** *  Note:
   9:.\Generated_Source\PSoC4/CyLib.c **** *   Documentation of the API's in this file is located in the
  10:.\Generated_Source\PSoC4/CyLib.c **** *   System Reference Guide provided with PSoC Creator.
  11:.\Generated_Source\PSoC4/CyLib.c **** *
  12:.\Generated_Source\PSoC4/CyLib.c **** ********************************************************************************
  13:.\Generated_Source\PSoC4/CyLib.c **** * Copyright 2010-2015, Cypress Semiconductor Corporation.  All rights reserved.
  14:.\Generated_Source\PSoC4/CyLib.c **** * You may use this file only in accordance with the license, terms, conditions,
  15:.\Generated_Source\PSoC4/CyLib.c **** * disclaimers, and limitations in the end user license agreement accompanying
  16:.\Generated_Source\PSoC4/CyLib.c **** * the software package with which this file was provided.
  17:.\Generated_Source\PSoC4/CyLib.c **** *******************************************************************************/
  18:.\Generated_Source\PSoC4/CyLib.c **** 
  19:.\Generated_Source\PSoC4/CyLib.c **** #include "CyLib.h"
  20:.\Generated_Source\PSoC4/CyLib.c **** 
  21:.\Generated_Source\PSoC4/CyLib.c **** #if(CY_IP_SRSSV2 && CY_IP_FMLT)
  22:.\Generated_Source\PSoC4/CyLib.c ****     #include "CyFlash.h"
  23:.\Generated_Source\PSoC4/CyLib.c **** #endif /* (CY_IP_SRSSV2 && CY_IP_FMLT) */
  24:.\Generated_Source\PSoC4/CyLib.c **** 
  25:.\Generated_Source\PSoC4/CyLib.c **** 
  26:.\Generated_Source\PSoC4/CyLib.c **** /* Do not use these definitions directly in your application */
  27:.\Generated_Source\PSoC4/CyLib.c **** uint32 cydelayFreqHz  = CYDEV_BCLK__SYSCLK__HZ;
  28:.\Generated_Source\PSoC4/CyLib.c **** uint32 cydelayFreqKhz = (CYDEV_BCLK__SYSCLK__HZ + CY_DELAY_1K_MINUS_1_THRESHOLD) / CY_DELAY_1K_THRE
  29:.\Generated_Source\PSoC4/CyLib.c **** uint8  cydelayFreqMhz = (uint8)((CYDEV_BCLK__SYSCLK__HZ + CY_DELAY_1M_MINUS_1_THRESHOLD) / CY_DELAY
  30:.\Generated_Source\PSoC4/CyLib.c **** uint32 cydelay32kMs   = CY_DELAY_MS_OVERFLOW * ((CYDEV_BCLK__SYSCLK__HZ + CY_DELAY_1K_MINUS_1_THRES
  31:.\Generated_Source\PSoC4/CyLib.c ****                         CY_DELAY_1K_THRESHOLD);
  32:.\Generated_Source\PSoC4/CyLib.c **** 
ARM GAS  C:\Users\moxon\AppData\Local\Temp\ccM9MmHX.s 			page 2


  33:.\Generated_Source\PSoC4/CyLib.c **** 
  34:.\Generated_Source\PSoC4/CyLib.c **** static cySysTickCallback CySysTickCallbacks[CY_SYS_SYST_NUM_OF_CALLBACKS];
  35:.\Generated_Source\PSoC4/CyLib.c **** static void CySysTickServiceCallbacks(void);
  36:.\Generated_Source\PSoC4/CyLib.c **** #if (CY_PSOC4_4100M || CY_PSOC4_4200M)
  37:.\Generated_Source\PSoC4/CyLib.c ****     static uint32 CySysClkImoGetWcoLock(void);
  38:.\Generated_Source\PSoC4/CyLib.c **** #endif  /* (CY_PSOC4_4100M || CY_PSOC4_4200M) */
  39:.\Generated_Source\PSoC4/CyLib.c **** 
  40:.\Generated_Source\PSoC4/CyLib.c **** 
  41:.\Generated_Source\PSoC4/CyLib.c **** /*******************************************************************************
  42:.\Generated_Source\PSoC4/CyLib.c **** * Indicates whether or not the SysTick has been initialized. The variable is
  43:.\Generated_Source\PSoC4/CyLib.c **** * initialized to 0 and set to 1 the first time CySysTickStart() is called.
  44:.\Generated_Source\PSoC4/CyLib.c **** *
  45:.\Generated_Source\PSoC4/CyLib.c **** * This allows the component to restart without reinitialization after the first
  46:.\Generated_Source\PSoC4/CyLib.c **** * call to the CySysTickStart() routine.
  47:.\Generated_Source\PSoC4/CyLib.c **** *
  48:.\Generated_Source\PSoC4/CyLib.c **** * If reinitialization of the SysTick is required, call CySysTickInit() before
  49:.\Generated_Source\PSoC4/CyLib.c **** * calling CySysTickStart(). Alternatively, the SysTick can be reinitialized by
  50:.\Generated_Source\PSoC4/CyLib.c **** * calling the CySysTickInit() and CySysTickEnable() functions.
  51:.\Generated_Source\PSoC4/CyLib.c **** *******************************************************************************/
  52:.\Generated_Source\PSoC4/CyLib.c **** uint32 CySysTickInitVar = 0u;
  53:.\Generated_Source\PSoC4/CyLib.c **** 
  54:.\Generated_Source\PSoC4/CyLib.c **** 
  55:.\Generated_Source\PSoC4/CyLib.c **** #if(CY_IP_SRSSV2)
  56:.\Generated_Source\PSoC4/CyLib.c ****         /* Conversion between CySysClkWriteImoFreq() parameter and register's value */
  57:.\Generated_Source\PSoC4/CyLib.c ****         const uint8 cyImoFreqMhz2Reg[CY_SYS_CLK_IMO_FREQ_TABLE_SIZE] = {
  58:.\Generated_Source\PSoC4/CyLib.c ****             /*  3 MHz */ 0x03u,  /*  4 MHz */ 0x04u,  /*  5 MHz */ 0x05u,  /*  6 MHz */ 0x06u,
  59:.\Generated_Source\PSoC4/CyLib.c ****             /*  7 MHz */ 0x07u,  /*  8 MHz */ 0x08u,  /*  9 MHz */ 0x09u,  /* 10 MHz */ 0x0Au,
  60:.\Generated_Source\PSoC4/CyLib.c ****             /* 11 MHz */ 0x0Bu,  /* 12 MHz */ 0x0Cu,  /* 13 MHz */ 0x0Eu,  /* 14 MHz */ 0x0Fu,
  61:.\Generated_Source\PSoC4/CyLib.c ****             /* 15 MHz */ 0x10u,  /* 16 MHz */ 0x11u,  /* 17 MHz */ 0x12u,  /* 18 MHz */ 0x13u,
  62:.\Generated_Source\PSoC4/CyLib.c ****             /* 19 MHz */ 0x14u,  /* 20 MHz */ 0x15u,  /* 21 MHz */ 0x16u,  /* 22 MHz */ 0x17u,
  63:.\Generated_Source\PSoC4/CyLib.c ****             /* 23 MHz */ 0x18u,  /* 24 MHz */ 0x19u,  /* 25 MHz */ 0x1Bu,  /* 26 MHz */ 0x1Cu,
  64:.\Generated_Source\PSoC4/CyLib.c ****             /* 27 MHz */ 0x1Du,  /* 28 MHz */ 0x1Eu,  /* 29 MHz */ 0x1Fu,  /* 30 MHz */ 0x20u,
  65:.\Generated_Source\PSoC4/CyLib.c ****             /* 31 MHz */ 0x21u,  /* 32 MHz */ 0x22u,  /* 33 MHz */ 0x23u,  /* 34 MHz */ 0x25u,
  66:.\Generated_Source\PSoC4/CyLib.c ****             /* 35 MHz */ 0x26u,  /* 36 MHz */ 0x27u,  /* 37 MHz */ 0x28u,  /* 38 MHz */ 0x29u,
  67:.\Generated_Source\PSoC4/CyLib.c ****             /* 39 MHz */ 0x2Au,  /* 40 MHz */ 0x2Bu,  /* 41 MHz */ 0x2Eu,  /* 42 MHz */ 0x2Fu,
  68:.\Generated_Source\PSoC4/CyLib.c ****             /* 43 MHz */ 0x30u,  /* 44 MHz */ 0x31u,  /* 45 MHz */ 0x32u,  /* 46 MHz */ 0x33u,
  69:.\Generated_Source\PSoC4/CyLib.c ****             /* 47 MHz */ 0x34u,  /* 48 MHz */ 0x35u };
  70:.\Generated_Source\PSoC4/CyLib.c **** #endif /* (CY_IP_SRSSV2) */
  71:.\Generated_Source\PSoC4/CyLib.c **** 
  72:.\Generated_Source\PSoC4/CyLib.c **** 
  73:.\Generated_Source\PSoC4/CyLib.c **** /*******************************************************************************
  74:.\Generated_Source\PSoC4/CyLib.c **** * Function Name: CySysClkImoStart
  75:.\Generated_Source\PSoC4/CyLib.c **** ********************************************************************************
  76:.\Generated_Source\PSoC4/CyLib.c **** *
  77:.\Generated_Source\PSoC4/CyLib.c **** * Summary:
  78:.\Generated_Source\PSoC4/CyLib.c **** *  Enables the IMO.
  79:.\Generated_Source\PSoC4/CyLib.c **** *
  80:.\Generated_Source\PSoC4/CyLib.c **** *  For PSoC 4100M / PSoC 4200M devices, this function will also enable WCO lock
  81:.\Generated_Source\PSoC4/CyLib.c **** *  if selected in the Design Wide Resources tab.
  82:.\Generated_Source\PSoC4/CyLib.c **** *
  83:.\Generated_Source\PSoC4/CyLib.c **** * Parameters:
  84:.\Generated_Source\PSoC4/CyLib.c **** *  None
  85:.\Generated_Source\PSoC4/CyLib.c **** *
  86:.\Generated_Source\PSoC4/CyLib.c **** * Return:
  87:.\Generated_Source\PSoC4/CyLib.c **** *  None
  88:.\Generated_Source\PSoC4/CyLib.c **** *
  89:.\Generated_Source\PSoC4/CyLib.c **** *******************************************************************************/
ARM GAS  C:\Users\moxon\AppData\Local\Temp\ccM9MmHX.s 			page 3


  90:.\Generated_Source\PSoC4/CyLib.c **** void CySysClkImoStart(void)
  91:.\Generated_Source\PSoC4/CyLib.c **** {
  26              		.loc 1 91 0
  27              		.cfi_startproc
  92:.\Generated_Source\PSoC4/CyLib.c ****     CY_SYS_CLK_IMO_CONFIG_REG |= CY_SYS_CLK_IMO_CONFIG_ENABLE;
  28              		.loc 1 92 0
  29 0000 034B     		ldr	r3, .L2
  30 0002 8022     		mov	r2, #128
  31 0004 1968     		ldr	r1, [r3]
  32 0006 1206     		lsl	r2, r2, #24
  33 0008 0A43     		orr	r2, r1
  34 000a 1A60     		str	r2, [r3]
  93:.\Generated_Source\PSoC4/CyLib.c **** 
  94:.\Generated_Source\PSoC4/CyLib.c ****     #if (CY_PSOC4_4100M || CY_PSOC4_4200M)
  95:.\Generated_Source\PSoC4/CyLib.c ****         #if (CYDEV_IMO_TRIMMED_BY_WCO == 1u)
  96:.\Generated_Source\PSoC4/CyLib.c ****             CySysClkImoEnableWcoLock();
  97:.\Generated_Source\PSoC4/CyLib.c ****         #endif  /* (CYDEV_IMO_TRIMMED_BY_WCO == 1u) */
  98:.\Generated_Source\PSoC4/CyLib.c ****     #endif  /* (CY_PSOC4_4100M || CY_PSOC4_4200M) */
  99:.\Generated_Source\PSoC4/CyLib.c **** 
 100:.\Generated_Source\PSoC4/CyLib.c **** }
  35              		.loc 1 100 0
  36              		@ sp needed
  37 000c 7047     		bx	lr
  38              	.L3:
  39 000e C046     		.align	2
  40              	.L2:
  41 0010 08010B40 		.word	1074462984
  42              		.cfi_endproc
  43              	.LFE0:
  44              		.size	CySysClkImoStart, .-CySysClkImoStart
  45              		.section	.text.CySysClkImoStop,"ax",%progbits
  46              		.align	1
  47              		.global	CySysClkImoStop
  48              		.code	16
  49              		.thumb_func
  50              		.type	CySysClkImoStop, %function
  51              	CySysClkImoStop:
  52              	.LFB1:
 101:.\Generated_Source\PSoC4/CyLib.c **** 
 102:.\Generated_Source\PSoC4/CyLib.c **** 
 103:.\Generated_Source\PSoC4/CyLib.c **** /*******************************************************************************
 104:.\Generated_Source\PSoC4/CyLib.c **** * Function Name: CySysClkImoStop
 105:.\Generated_Source\PSoC4/CyLib.c **** ********************************************************************************
 106:.\Generated_Source\PSoC4/CyLib.c **** *
 107:.\Generated_Source\PSoC4/CyLib.c **** * Summary:
 108:.\Generated_Source\PSoC4/CyLib.c **** *  Disables the IMO.
 109:.\Generated_Source\PSoC4/CyLib.c **** *
 110:.\Generated_Source\PSoC4/CyLib.c **** *  For PSoC 4100M/PSoC 4200M devices , this function will also disable WCO lock
 111:.\Generated_Source\PSoC4/CyLib.c **** *  if already enabled.
 112:.\Generated_Source\PSoC4/CyLib.c **** *
 113:.\Generated_Source\PSoC4/CyLib.c **** * Parameters:
 114:.\Generated_Source\PSoC4/CyLib.c **** *  None
 115:.\Generated_Source\PSoC4/CyLib.c **** *
 116:.\Generated_Source\PSoC4/CyLib.c **** * Return:
 117:.\Generated_Source\PSoC4/CyLib.c **** *  None
 118:.\Generated_Source\PSoC4/CyLib.c **** *
 119:.\Generated_Source\PSoC4/CyLib.c **** *******************************************************************************/
ARM GAS  C:\Users\moxon\AppData\Local\Temp\ccM9MmHX.s 			page 4


 120:.\Generated_Source\PSoC4/CyLib.c **** void CySysClkImoStop(void)
 121:.\Generated_Source\PSoC4/CyLib.c **** {
  53              		.loc 1 121 0
  54              		.cfi_startproc
 122:.\Generated_Source\PSoC4/CyLib.c ****     #if (CY_PSOC4_4100M || CY_PSOC4_4200M)
 123:.\Generated_Source\PSoC4/CyLib.c ****         CySysClkImoDisableWcoLock();
 124:.\Generated_Source\PSoC4/CyLib.c ****     #endif  /* #if (CY_PSOC4_4100M || CY_PSOC4_4200M) */
 125:.\Generated_Source\PSoC4/CyLib.c **** 
 126:.\Generated_Source\PSoC4/CyLib.c ****     CY_SYS_CLK_IMO_CONFIG_REG &= ( uint32 ) ( ~( uint32 )CY_SYS_CLK_IMO_CONFIG_ENABLE);
  55              		.loc 1 126 0
  56 0000 024B     		ldr	r3, .L5
 127:.\Generated_Source\PSoC4/CyLib.c **** }
  57              		.loc 1 127 0
  58              		@ sp needed
 126:.\Generated_Source\PSoC4/CyLib.c ****     CY_SYS_CLK_IMO_CONFIG_REG &= ( uint32 ) ( ~( uint32 )CY_SYS_CLK_IMO_CONFIG_ENABLE);
  59              		.loc 1 126 0
  60 0002 1A68     		ldr	r2, [r3]
  61 0004 5200     		lsl	r2, r2, #1
  62 0006 5208     		lsr	r2, r2, #1
  63 0008 1A60     		str	r2, [r3]
  64              		.loc 1 127 0
  65 000a 7047     		bx	lr
  66              	.L6:
  67              		.align	2
  68              	.L5:
  69 000c 08010B40 		.word	1074462984
  70              		.cfi_endproc
  71              	.LFE1:
  72              		.size	CySysClkImoStop, .-CySysClkImoStop
  73              		.section	.text.CySysClkWriteHfclkDirect,"ax",%progbits
  74              		.align	1
  75              		.global	CySysClkWriteHfclkDirect
  76              		.code	16
  77              		.thumb_func
  78              		.type	CySysClkWriteHfclkDirect, %function
  79              	CySysClkWriteHfclkDirect:
  80              	.LFB2:
 128:.\Generated_Source\PSoC4/CyLib.c **** 
 129:.\Generated_Source\PSoC4/CyLib.c **** #if (CY_PSOC4_4100M || CY_PSOC4_4200M)
 130:.\Generated_Source\PSoC4/CyLib.c **** 
 131:.\Generated_Source\PSoC4/CyLib.c ****     /*******************************************************************************
 132:.\Generated_Source\PSoC4/CyLib.c ****     * Function Name: CySysClkImoEnableWcoLock
 133:.\Generated_Source\PSoC4/CyLib.c ****     ********************************************************************************
 134:.\Generated_Source\PSoC4/CyLib.c ****     *
 135:.\Generated_Source\PSoC4/CyLib.c ****     * Summary:
 136:.\Generated_Source\PSoC4/CyLib.c ****     *  Enables the IMO to WCO lock feature. This function works only if the WCO is
 137:.\Generated_Source\PSoC4/CyLib.c ****     *  already enabled. If the WCO is not enabled then this function returns
 138:.\Generated_Source\PSoC4/CyLib.c ****     *  without enabling the lock feature.
 139:.\Generated_Source\PSoC4/CyLib.c ****     *
 140:.\Generated_Source\PSoC4/CyLib.c ****     *  This function is applicable for PSoC 4100M/PSoC 4200M devices only.
 141:.\Generated_Source\PSoC4/CyLib.c ****     *
 142:.\Generated_Source\PSoC4/CyLib.c ****     * Parameters:
 143:.\Generated_Source\PSoC4/CyLib.c ****     *  None
 144:.\Generated_Source\PSoC4/CyLib.c ****     *
 145:.\Generated_Source\PSoC4/CyLib.c ****     * Return:
 146:.\Generated_Source\PSoC4/CyLib.c ****     *  None
 147:.\Generated_Source\PSoC4/CyLib.c ****     *
ARM GAS  C:\Users\moxon\AppData\Local\Temp\ccM9MmHX.s 			page 5


 148:.\Generated_Source\PSoC4/CyLib.c ****     *******************************************************************************/
 149:.\Generated_Source\PSoC4/CyLib.c ****     void CySysClkImoEnableWcoLock(void)
 150:.\Generated_Source\PSoC4/CyLib.c ****     {
 151:.\Generated_Source\PSoC4/CyLib.c ****         uint32 i;
 152:.\Generated_Source\PSoC4/CyLib.c ****         uint32 freq = CY_SYS_CLK_IMO_MIN_FREQ_MHZ;
 153:.\Generated_Source\PSoC4/CyLib.c ****         uint8  interruptState;
 154:.\Generated_Source\PSoC4/CyLib.c ****         uint32 regTmp;
 155:.\Generated_Source\PSoC4/CyLib.c ****         volatile uint32 flashCtlReg;
 156:.\Generated_Source\PSoC4/CyLib.c **** 
 157:.\Generated_Source\PSoC4/CyLib.c ****         if (0u != CySysClkWcoEnabled())
 158:.\Generated_Source\PSoC4/CyLib.c ****         {
 159:.\Generated_Source\PSoC4/CyLib.c ****             interruptState = CyEnterCriticalSection();
 160:.\Generated_Source\PSoC4/CyLib.c **** 
 161:.\Generated_Source\PSoC4/CyLib.c ****             /* Get current IMO frequency based on the register value */
 162:.\Generated_Source\PSoC4/CyLib.c ****             for(i = 0u; i < CY_SYS_CLK_IMO_FREQ_TABLE_SIZE; i++)
 163:.\Generated_Source\PSoC4/CyLib.c ****             {
 164:.\Generated_Source\PSoC4/CyLib.c ****                 if ((uint8) (CY_SYS_CLK_IMO_TRIM2_REG & CY_SYS_CLK_IMO_FREQ_BITS_MASK) == cyImoFreq
 165:.\Generated_Source\PSoC4/CyLib.c ****                 {
 166:.\Generated_Source\PSoC4/CyLib.c ****                     freq = i + CY_SYS_CLK_IMO_FREQ_TABLE_OFFSET;
 167:.\Generated_Source\PSoC4/CyLib.c ****                     break;
 168:.\Generated_Source\PSoC4/CyLib.c ****                 }
 169:.\Generated_Source\PSoC4/CyLib.c ****             }
 170:.\Generated_Source\PSoC4/CyLib.c **** 
 171:.\Generated_Source\PSoC4/CyLib.c ****             if ((CY_SYS_CLK_IMO_TRIM4_REG & CY_SYS_CLK_IMO_TRIM4_GAIN_MASK) == 0u)
 172:.\Generated_Source\PSoC4/CyLib.c ****             {
 173:.\Generated_Source\PSoC4/CyLib.c **** 			    CY_SYS_CLK_IMO_TRIM4_REG = (CY_SYS_CLK_IMO_TRIM4_REG & (uint32) ~CY_SYS_CLK_IMO_TRIM4_GAIN_M
 174:.\Generated_Source\PSoC4/CyLib.c **** 			             				    CY_SYS_CLK_IMO_TRIM4_GAIN;
 175:.\Generated_Source\PSoC4/CyLib.c ****             }
 176:.\Generated_Source\PSoC4/CyLib.c **** 
 177:.\Generated_Source\PSoC4/CyLib.c ****             regTmp  = CY_SYS_CLK_WCO_DPLL_REG & ~(CY_SYS_CLK_WCO_DPLL_MULT_MASK |
 178:.\Generated_Source\PSoC4/CyLib.c ****                                                   CY_SYS_CLK_WCO_CONFIG_DPLL_LF_IGAIN_MASK |
 179:.\Generated_Source\PSoC4/CyLib.c ****                                                   CY_SYS_CLK_WCO_CONFIG_DPLL_LF_PGAIN_MASK);
 180:.\Generated_Source\PSoC4/CyLib.c **** 
 181:.\Generated_Source\PSoC4/CyLib.c ****             /* Set multiplier to determine IMO frequency in multiples of the WCO frequency */
 182:.\Generated_Source\PSoC4/CyLib.c ****             regTmp |= (CY_SYS_CLK_WCO_DPLL_MULT_VALUE(freq) & CY_SYS_CLK_WCO_DPLL_MULT_MASK);
 183:.\Generated_Source\PSoC4/CyLib.c **** 
 184:.\Generated_Source\PSoC4/CyLib.c ****             /* Set DPLL Loop Filter Integral and Proportional Gains Setting */
 185:.\Generated_Source\PSoC4/CyLib.c ****             regTmp |= (CY_SYS_CLK_WCO_CONFIG_DPLL_LF_IGAIN | CY_SYS_CLK_WCO_CONFIG_DPLL_LF_PGAIN);
 186:.\Generated_Source\PSoC4/CyLib.c **** 
 187:.\Generated_Source\PSoC4/CyLib.c ****             CY_SYS_CLK_WCO_DPLL_REG = regTmp;
 188:.\Generated_Source\PSoC4/CyLib.c **** 
 189:.\Generated_Source\PSoC4/CyLib.c ****             flashCtlReg = CY_FLASH_CTL_REG;
 190:.\Generated_Source\PSoC4/CyLib.c ****             CySysFlashSetWaitCycles(CY_SYS_CLK_IMO_MAX_FREQ_MHZ);
 191:.\Generated_Source\PSoC4/CyLib.c ****             CY_SYS_CLK_WCO_CONFIG_REG |= CY_SYS_CLK_WCO_CONFIG_DPLL_ENABLE;
 192:.\Generated_Source\PSoC4/CyLib.c ****             CyDelay(320u);
 193:.\Generated_Source\PSoC4/CyLib.c ****             CY_FLASH_CTL_REG = flashCtlReg;
 194:.\Generated_Source\PSoC4/CyLib.c **** 
 195:.\Generated_Source\PSoC4/CyLib.c ****             CyExitCriticalSection(interruptState);
 196:.\Generated_Source\PSoC4/CyLib.c ****         }
 197:.\Generated_Source\PSoC4/CyLib.c ****     }
 198:.\Generated_Source\PSoC4/CyLib.c **** 
 199:.\Generated_Source\PSoC4/CyLib.c **** 
 200:.\Generated_Source\PSoC4/CyLib.c ****     /*******************************************************************************
 201:.\Generated_Source\PSoC4/CyLib.c ****     * Function Name: CySysClkImoDisableWcoLock
 202:.\Generated_Source\PSoC4/CyLib.c ****     ********************************************************************************
 203:.\Generated_Source\PSoC4/CyLib.c ****     *
 204:.\Generated_Source\PSoC4/CyLib.c ****     * Summary:
ARM GAS  C:\Users\moxon\AppData\Local\Temp\ccM9MmHX.s 			page 6


 205:.\Generated_Source\PSoC4/CyLib.c ****     *  Disables the IMO to WCO lock feature.
 206:.\Generated_Source\PSoC4/CyLib.c ****     *
 207:.\Generated_Source\PSoC4/CyLib.c ****     *  This function is applicable for PSoC 4100M/PSoC 4200M devices only.
 208:.\Generated_Source\PSoC4/CyLib.c ****     *
 209:.\Generated_Source\PSoC4/CyLib.c ****     * Parameters:
 210:.\Generated_Source\PSoC4/CyLib.c ****     *  None
 211:.\Generated_Source\PSoC4/CyLib.c ****     *
 212:.\Generated_Source\PSoC4/CyLib.c ****     * Return:
 213:.\Generated_Source\PSoC4/CyLib.c ****     *  None
 214:.\Generated_Source\PSoC4/CyLib.c ****     *
 215:.\Generated_Source\PSoC4/CyLib.c ****     *******************************************************************************/
 216:.\Generated_Source\PSoC4/CyLib.c ****     void CySysClkImoDisableWcoLock(void)
 217:.\Generated_Source\PSoC4/CyLib.c ****     {
 218:.\Generated_Source\PSoC4/CyLib.c ****         CY_SYS_CLK_WCO_CONFIG_REG &= (uint32) ~CY_SYS_CLK_WCO_CONFIG_DPLL_ENABLE;
 219:.\Generated_Source\PSoC4/CyLib.c ****     }
 220:.\Generated_Source\PSoC4/CyLib.c **** 
 221:.\Generated_Source\PSoC4/CyLib.c **** 
 222:.\Generated_Source\PSoC4/CyLib.c ****     /*******************************************************************************
 223:.\Generated_Source\PSoC4/CyLib.c ****     * Function Name: CySysClkImoGetWcoLock
 224:.\Generated_Source\PSoC4/CyLib.c ****     ********************************************************************************
 225:.\Generated_Source\PSoC4/CyLib.c ****     *
 226:.\Generated_Source\PSoC4/CyLib.c ****     * Summary:
 227:.\Generated_Source\PSoC4/CyLib.c ****     *  Reports the IMO to WCO lock enable state.
 228:.\Generated_Source\PSoC4/CyLib.c ****     *
 229:.\Generated_Source\PSoC4/CyLib.c ****     *  This function is applicable for PSoC 4100M/PSoC 4200M devices only.
 230:.\Generated_Source\PSoC4/CyLib.c ****     *
 231:.\Generated_Source\PSoC4/CyLib.c ****     * Parameters:
 232:.\Generated_Source\PSoC4/CyLib.c ****     *  None
 233:.\Generated_Source\PSoC4/CyLib.c ****     *
 234:.\Generated_Source\PSoC4/CyLib.c ****     * Return:
 235:.\Generated_Source\PSoC4/CyLib.c ****     *  1 if IMO to WCO lock is enabled, and 0 if IMO to WCO lock is disabled.
 236:.\Generated_Source\PSoC4/CyLib.c ****     *
 237:.\Generated_Source\PSoC4/CyLib.c ****     *******************************************************************************/
 238:.\Generated_Source\PSoC4/CyLib.c ****     static uint32 CySysClkImoGetWcoLock(void)
 239:.\Generated_Source\PSoC4/CyLib.c ****     {
 240:.\Generated_Source\PSoC4/CyLib.c ****         return ((0u != (CY_SYS_CLK_WCO_CONFIG_REG & CY_SYS_CLK_WCO_CONFIG_DPLL_ENABLE)) ?
 241:.\Generated_Source\PSoC4/CyLib.c ****                 (uint32) 1u :
 242:.\Generated_Source\PSoC4/CyLib.c ****                 (uint32) 0u);
 243:.\Generated_Source\PSoC4/CyLib.c ****     }
 244:.\Generated_Source\PSoC4/CyLib.c **** 
 245:.\Generated_Source\PSoC4/CyLib.c **** #endif /* (CY_PSOC4_4100M || CY_PSOC4_4200M) */
 246:.\Generated_Source\PSoC4/CyLib.c **** 
 247:.\Generated_Source\PSoC4/CyLib.c **** 
 248:.\Generated_Source\PSoC4/CyLib.c **** /*******************************************************************************
 249:.\Generated_Source\PSoC4/CyLib.c **** * Function Name: CySysClkWriteHfclkDirect
 250:.\Generated_Source\PSoC4/CyLib.c **** ********************************************************************************
 251:.\Generated_Source\PSoC4/CyLib.c **** *
 252:.\Generated_Source\PSoC4/CyLib.c **** * Summary:
 253:.\Generated_Source\PSoC4/CyLib.c **** *  Selects the direct source for the HFCLK.
 254:.\Generated_Source\PSoC4/CyLib.c **** *
 255:.\Generated_Source\PSoC4/CyLib.c **** * Parameters:
 256:.\Generated_Source\PSoC4/CyLib.c **** *  clkSelect: One of the available HFCLK direct sources:
 257:.\Generated_Source\PSoC4/CyLib.c **** *   Define                    Source
 258:.\Generated_Source\PSoC4/CyLib.c **** *    CY_SYS_CLK_HFCLK_IMO     IMO
 259:.\Generated_Source\PSoC4/CyLib.c **** *    CY_SYS_CLK_HFCLK_EXTCLK  External clock pin
 260:.\Generated_Source\PSoC4/CyLib.c **** *    CY_SYS_CLK_HFCLK_ECO     External crystal oscillator
 261:.\Generated_Source\PSoC4/CyLib.c **** *                             (applicable only for PSoC 4100-BL / PSoC 4200-BL)
ARM GAS  C:\Users\moxon\AppData\Local\Temp\ccM9MmHX.s 			page 7


 262:.\Generated_Source\PSoC4/CyLib.c **** *
 263:.\Generated_Source\PSoC4/CyLib.c **** * Return:
 264:.\Generated_Source\PSoC4/CyLib.c **** *  None
 265:.\Generated_Source\PSoC4/CyLib.c **** *
 266:.\Generated_Source\PSoC4/CyLib.c **** * Side Effects:
 267:.\Generated_Source\PSoC4/CyLib.c **** *  The new source must be running and stable before calling this function.
 268:.\Generated_Source\PSoC4/CyLib.c **** *
 269:.\Generated_Source\PSoC4/CyLib.c **** *  PSoC 4000:
 270:.\Generated_Source\PSoC4/CyLib.c **** *  The SYSCLK has a maximum speed of 16 MHz, so HFCLK and SYSCLK dividers should
 271:.\Generated_Source\PSoC4/CyLib.c **** *  be selected in a way to not to exceed 16 MHz for the System clock.
 272:.\Generated_Source\PSoC4/CyLib.c **** *
 273:.\Generated_Source\PSoC4/CyLib.c **** *  If the SYSCLK clock frequency increases during device operation, call
 274:.\Generated_Source\PSoC4/CyLib.c **** *  CySysFlashSetWaitCycles() with the appropriate parameter to adjust the number
 275:.\Generated_Source\PSoC4/CyLib.c **** *  of clock cycles the cache will wait before sampling data comes back from
 276:.\Generated_Source\PSoC4/CyLib.c **** *  Flash. If the SYSCLK clock frequency decreases, you can call
 277:.\Generated_Source\PSoC4/CyLib.c **** *  CySysFlashSetWaitCycles() to improve the CPU performance. See
 278:.\Generated_Source\PSoC4/CyLib.c **** *  CySysFlashSetWaitCycles() description for more information.
 279:.\Generated_Source\PSoC4/CyLib.c **** *
 280:.\Generated_Source\PSoC4/CyLib.c **** *******************************************************************************/
 281:.\Generated_Source\PSoC4/CyLib.c **** void CySysClkWriteHfclkDirect(uint32 clkSelect)
 282:.\Generated_Source\PSoC4/CyLib.c **** {
  81              		.loc 1 282 0
  82              		.cfi_startproc
  83              	.LVL0:
  84 0000 10B5     		push	{r4, lr}
  85              		.cfi_def_cfa_offset 8
  86              		.cfi_offset 4, -8
  87              		.cfi_offset 14, -4
  88              		.loc 1 282 0
  89 0002 041C     		mov	r4, r0
 283:.\Generated_Source\PSoC4/CyLib.c ****     uint8  interruptState;
 284:.\Generated_Source\PSoC4/CyLib.c **** 
 285:.\Generated_Source\PSoC4/CyLib.c ****     interruptState = CyEnterCriticalSection();
  90              		.loc 1 285 0
  91 0004 FFF7FEFF 		bl	CyEnterCriticalSection
  92              	.LVL1:
 286:.\Generated_Source\PSoC4/CyLib.c **** 
 287:.\Generated_Source\PSoC4/CyLib.c ****     CY_SYS_CLK_SELECT_REG = ((CY_SYS_CLK_SELECT_REG & (( uint32 ) ~(( uint32 )CY_SYS_CLK_SELECT_DIR
  93              		.loc 1 287 0
  94 0008 054B     		ldr	r3, .L8
 288:.\Generated_Source\PSoC4/CyLib.c ****                         (( uint32 ) (clkSelect & ( uint32 )CY_SYS_CLK_SELECT_DIRECT_SEL_PARAM_MASK)
  95              		.loc 1 288 0
  96 000a 0121     		mov	r1, #1
 287:.\Generated_Source\PSoC4/CyLib.c ****     CY_SYS_CLK_SELECT_REG = ((CY_SYS_CLK_SELECT_REG & (( uint32 ) ~(( uint32 )CY_SYS_CLK_SELECT_DIR
  97              		.loc 1 287 0
  98 000c 1A68     		ldr	r2, [r3]
  99              		.loc 1 288 0
 100 000e 0C40     		and	r4, r1
 101              	.LVL2:
 287:.\Generated_Source\PSoC4/CyLib.c ****     CY_SYS_CLK_SELECT_REG = ((CY_SYS_CLK_SELECT_REG & (( uint32 ) ~(( uint32 )CY_SYS_CLK_SELECT_DIR
 102              		.loc 1 287 0
 103 0010 0721     		mov	r1, #7
 104 0012 8A43     		bic	r2, r1
 105 0014 1443     		orr	r4, r2
 106 0016 1C60     		str	r4, [r3]
 289:.\Generated_Source\PSoC4/CyLib.c **** 
 290:.\Generated_Source\PSoC4/CyLib.c ****     CyExitCriticalSection(interruptState);
ARM GAS  C:\Users\moxon\AppData\Local\Temp\ccM9MmHX.s 			page 8


 107              		.loc 1 290 0
 108 0018 FFF7FEFF 		bl	CyExitCriticalSection
 109              	.LVL3:
 291:.\Generated_Source\PSoC4/CyLib.c **** }
 110              		.loc 1 291 0
 111              		@ sp needed
 112 001c 10BD     		pop	{r4, pc}
 113              	.L9:
 114 001e C046     		.align	2
 115              	.L8:
 116 0020 00010B40 		.word	1074462976
 117              		.cfi_endproc
 118              	.LFE2:
 119              		.size	CySysClkWriteHfclkDirect, .-CySysClkWriteHfclkDirect
 120              		.section	.text.CySysClkWriteSysclkDiv,"ax",%progbits
 121              		.align	1
 122              		.global	CySysClkWriteSysclkDiv
 123              		.code	16
 124              		.thumb_func
 125              		.type	CySysClkWriteSysclkDiv, %function
 126              	CySysClkWriteSysclkDiv:
 127              	.LFB3:
 292:.\Generated_Source\PSoC4/CyLib.c **** 
 293:.\Generated_Source\PSoC4/CyLib.c **** 
 294:.\Generated_Source\PSoC4/CyLib.c **** /*******************************************************************************
 295:.\Generated_Source\PSoC4/CyLib.c **** * Function Name: CySysClkWriteSysclkDiv
 296:.\Generated_Source\PSoC4/CyLib.c **** ********************************************************************************
 297:.\Generated_Source\PSoC4/CyLib.c **** *
 298:.\Generated_Source\PSoC4/CyLib.c **** * Summary:
 299:.\Generated_Source\PSoC4/CyLib.c **** *  Selects the prescaler divide amount for SYSCLK from HFCLK.
 300:.\Generated_Source\PSoC4/CyLib.c **** *
 301:.\Generated_Source\PSoC4/CyLib.c **** * Parameters:
 302:.\Generated_Source\PSoC4/CyLib.c **** *  divider: Power of 2 prescaler selection
 303:.\Generated_Source\PSoC4/CyLib.c **** *
 304:.\Generated_Source\PSoC4/CyLib.c **** *   Define                        Description
 305:.\Generated_Source\PSoC4/CyLib.c **** *   CY_SYS_CLK_SYSCLK_DIV1        SYSCLK = HFCLK / 1
 306:.\Generated_Source\PSoC4/CyLib.c **** *   CY_SYS_CLK_SYSCLK_DIV2        SYSCLK = HFCLK / 2
 307:.\Generated_Source\PSoC4/CyLib.c **** *   CY_SYS_CLK_SYSCLK_DIV4        SYSCLK = HFCLK / 4
 308:.\Generated_Source\PSoC4/CyLib.c **** *   CY_SYS_CLK_SYSCLK_DIV8        SYSCLK = HFCLK / 8
 309:.\Generated_Source\PSoC4/CyLib.c **** *   CY_SYS_CLK_SYSCLK_DIV16       SYSCLK = HFCLK / 16  (N/A for 4000 Family)
 310:.\Generated_Source\PSoC4/CyLib.c **** *   CY_SYS_CLK_SYSCLK_DIV32       SYSCLK = HFCLK / 32  (N/A for 4000 Family)
 311:.\Generated_Source\PSoC4/CyLib.c **** *   CY_SYS_CLK_SYSCLK_DIV64       SYSCLK = HFCLK / 64  (N/A for 4000 Family)
 312:.\Generated_Source\PSoC4/CyLib.c **** *   CY_SYS_CLK_SYSCLK_DIV128      SYSCLK = HFCLK / 128 (N/A for 4000 Family)
 313:.\Generated_Source\PSoC4/CyLib.c **** *
 314:.\Generated_Source\PSoC4/CyLib.c **** * Return:
 315:.\Generated_Source\PSoC4/CyLib.c **** *  None
 316:.\Generated_Source\PSoC4/CyLib.c **** *
 317:.\Generated_Source\PSoC4/CyLib.c **** * Side Effects:
 318:.\Generated_Source\PSoC4/CyLib.c **** *  4000 Family:
 319:.\Generated_Source\PSoC4/CyLib.c **** *  The SYS_CLK has the speed of 16 MHz, so dividers HF_CLK and SYS_CLK
 320:.\Generated_Source\PSoC4/CyLib.c **** *  dividers should be selected in a way, not to exceed 16 MHz for SYS_CLK.
 321:.\Generated_Source\PSoC4/CyLib.c **** *
 322:.\Generated_Source\PSoC4/CyLib.c **** *  If the SYSCLK clock frequency increases during the device operation, call
 323:.\Generated_Source\PSoC4/CyLib.c **** *  CySysFlashSetWaitCycles() with the appropriate parameter to adjust the number
 324:.\Generated_Source\PSoC4/CyLib.c **** *  of clock cycles the cache will wait before sampling data comes back from
 325:.\Generated_Source\PSoC4/CyLib.c **** *  Flash. If the SYSCLK clock frequency decreases, you can call
 326:.\Generated_Source\PSoC4/CyLib.c **** *  CySysFlashSetWaitCycles() to improve the CPU performance. See
ARM GAS  C:\Users\moxon\AppData\Local\Temp\ccM9MmHX.s 			page 9


 327:.\Generated_Source\PSoC4/CyLib.c **** *  CySysFlashSetWaitCycles() description for more information.
 328:.\Generated_Source\PSoC4/CyLib.c **** *
 329:.\Generated_Source\PSoC4/CyLib.c **** *******************************************************************************/
 330:.\Generated_Source\PSoC4/CyLib.c **** void CySysClkWriteSysclkDiv(uint32 divider)
 331:.\Generated_Source\PSoC4/CyLib.c **** {
 128              		.loc 1 331 0
 129              		.cfi_startproc
 130              	.LVL4:
 131 0000 38B5     		push	{r3, r4, r5, lr}
 132              		.cfi_def_cfa_offset 16
 133              		.cfi_offset 3, -16
 134              		.cfi_offset 4, -12
 135              		.cfi_offset 5, -8
 136              		.cfi_offset 14, -4
 137              		.loc 1 331 0
 138 0002 041C     		mov	r4, r0
 332:.\Generated_Source\PSoC4/CyLib.c ****     uint8  interruptState;
 333:.\Generated_Source\PSoC4/CyLib.c **** 
 334:.\Generated_Source\PSoC4/CyLib.c ****     interruptState = CyEnterCriticalSection();
 139              		.loc 1 334 0
 140 0004 FFF7FEFF 		bl	CyEnterCriticalSection
 141              	.LVL5:
 335:.\Generated_Source\PSoC4/CyLib.c **** 
 336:.\Generated_Source\PSoC4/CyLib.c ****     CY_SYS_CLK_SELECT_REG = ((uint32)(((uint32)divider & CY_SYS_CLK_SELECT_SYSCLK_DIV_MASK) <<
 337:.\Generated_Source\PSoC4/CyLib.c ****                                     CY_SYS_CLK_SELECT_SYSCLK_DIV_SHIFT)) |
 338:.\Generated_Source\PSoC4/CyLib.c ****                             (CY_SYS_CLK_SELECT_REG & ((uint32)(~(uint32)(CY_SYS_CLK_SELECT_SYSCLK_D
 142              		.loc 1 338 0
 143 0008 064B     		ldr	r3, .L11
 336:.\Generated_Source\PSoC4/CyLib.c ****     CY_SYS_CLK_SELECT_REG = ((uint32)(((uint32)divider & CY_SYS_CLK_SELECT_SYSCLK_DIV_MASK) <<
 144              		.loc 1 336 0
 145 000a 0722     		mov	r2, #7
 146              		.loc 1 338 0
 147 000c 1D68     		ldr	r5, [r3]
 148 000e 0649     		ldr	r1, .L11+4
 336:.\Generated_Source\PSoC4/CyLib.c ****     CY_SYS_CLK_SELECT_REG = ((uint32)(((uint32)divider & CY_SYS_CLK_SELECT_SYSCLK_DIV_MASK) <<
 149              		.loc 1 336 0
 150 0010 1440     		and	r4, r2
 151              	.LVL6:
 152 0012 E204     		lsl	r2, r4, #19
 153              		.loc 1 338 0
 154 0014 2C1C     		mov	r4, r5
 155 0016 0C40     		and	r4, r1
 337:.\Generated_Source\PSoC4/CyLib.c ****                                     CY_SYS_CLK_SELECT_SYSCLK_DIV_SHIFT)) |
 156              		.loc 1 337 0
 157 0018 1443     		orr	r4, r2
 336:.\Generated_Source\PSoC4/CyLib.c ****     CY_SYS_CLK_SELECT_REG = ((uint32)(((uint32)divider & CY_SYS_CLK_SELECT_SYSCLK_DIV_MASK) <<
 158              		.loc 1 336 0
 159 001a 1C60     		str	r4, [r3]
 339:.\Generated_Source\PSoC4/CyLib.c ****                                     CY_SYS_CLK_SELECT_SYSCLK_DIV_SHIFT))));
 340:.\Generated_Source\PSoC4/CyLib.c **** 
 341:.\Generated_Source\PSoC4/CyLib.c ****     CyExitCriticalSection(interruptState);
 160              		.loc 1 341 0
 161 001c FFF7FEFF 		bl	CyExitCriticalSection
 162              	.LVL7:
 342:.\Generated_Source\PSoC4/CyLib.c **** }
 163              		.loc 1 342 0
 164              		@ sp needed
ARM GAS  C:\Users\moxon\AppData\Local\Temp\ccM9MmHX.s 			page 10


 165 0020 38BD     		pop	{r3, r4, r5, pc}
 166              	.L12:
 167 0022 C046     		.align	2
 168              	.L11:
 169 0024 00010B40 		.word	1074462976
 170 0028 FFFFC7FF 		.word	-3670017
 171              		.cfi_endproc
 172              	.LFE3:
 173              		.size	CySysClkWriteSysclkDiv, .-CySysClkWriteSysclkDiv
 174              		.section	.text.CySysLvdDisable,"ax",%progbits
 175              		.align	1
 176              		.global	CySysLvdDisable
 177              		.code	16
 178              		.thumb_func
 179              		.type	CySysLvdDisable, %function
 180              	CySysLvdDisable:
 181              	.LFB6:
 343:.\Generated_Source\PSoC4/CyLib.c **** 
 344:.\Generated_Source\PSoC4/CyLib.c **** 
 345:.\Generated_Source\PSoC4/CyLib.c **** /*******************************************************************************
 346:.\Generated_Source\PSoC4/CyLib.c **** * Function Name: CySysClkWriteImoFreq
 347:.\Generated_Source\PSoC4/CyLib.c **** ********************************************************************************
 348:.\Generated_Source\PSoC4/CyLib.c **** *
 349:.\Generated_Source\PSoC4/CyLib.c **** * Summary:
 350:.\Generated_Source\PSoC4/CyLib.c **** *  Sets the frequency of the IMO.
 351:.\Generated_Source\PSoC4/CyLib.c **** *
 352:.\Generated_Source\PSoC4/CyLib.c **** *  If IMO is currently driving the HFCLK, and if the HFCLK frequency decreases,
 353:.\Generated_Source\PSoC4/CyLib.c **** *  you can call CySysFlashSetWaitCycles () to improve CPU performance. See
 354:.\Generated_Source\PSoC4/CyLib.c **** *  CySysFlashSetWaitCycles () for more information.
 355:.\Generated_Source\PSoC4/CyLib.c **** *
 356:.\Generated_Source\PSoC4/CyLib.c **** *  For PSoC 4000 family of devices, maximum HFCLK frequency is 16 MHz. If IMO is
 357:.\Generated_Source\PSoC4/CyLib.c **** *  configured to frequencies above 16 MHz, ensure to set the appropriate HFCLK
 358:.\Generated_Source\PSoC4/CyLib.c **** *  predivider value first.
 359:.\Generated_Source\PSoC4/CyLib.c **** *
 360:.\Generated_Source\PSoC4/CyLib.c **** *  For PSoC 4100M/PSoC 4200M devices, if WCO lock feature is enabled then this
 361:.\Generated_Source\PSoC4/CyLib.c **** *  API will disable the lock, write the new IMO frequency and then re-enable the
 362:.\Generated_Source\PSoC4/CyLib.c **** *  lock.
 363:.\Generated_Source\PSoC4/CyLib.c **** *
 364:.\Generated_Source\PSoC4/CyLib.c **** * Parameters:
 365:.\Generated_Source\PSoC4/CyLib.c **** *  All PSoC 4 families excluding PSoC 4000: Valid range [3-48] with step size
 366:.\Generated_Source\PSoC4/CyLib.c **** *  equals 1.
 367:.\Generated_Source\PSoC4/CyLib.c **** *
 368:.\Generated_Source\PSoC4/CyLib.c **** *  PSoC 4000: Valid range [24-48] with step size equals 4.
 369:.\Generated_Source\PSoC4/CyLib.c **** *
 370:.\Generated_Source\PSoC4/CyLib.c **** *  Note: The CPU is halted if new frequency is invalid and project is
 371:.\Generated_Source\PSoC4/CyLib.c **** *  compiled in debug mode.
 372:.\Generated_Source\PSoC4/CyLib.c **** *
 373:.\Generated_Source\PSoC4/CyLib.c **** * Return:
 374:.\Generated_Source\PSoC4/CyLib.c **** *  None
 375:.\Generated_Source\PSoC4/CyLib.c **** *
 376:.\Generated_Source\PSoC4/CyLib.c **** * Side Effects:
 377:.\Generated_Source\PSoC4/CyLib.c **** *  If the SYSCLK clock frequency increases during the device operation, call
 378:.\Generated_Source\PSoC4/CyLib.c **** *  CySysFlashSetWaitCycles() with the appropriate parameter to adjust the number
 379:.\Generated_Source\PSoC4/CyLib.c **** *  of clock cycles the cache will wait before sampling data comes back from
 380:.\Generated_Source\PSoC4/CyLib.c **** *  Flash. If the SYSCLK clock frequency decreases, you can call
 381:.\Generated_Source\PSoC4/CyLib.c **** *  CySysFlashSetWaitCycles() to improve the CPU performance. See
 382:.\Generated_Source\PSoC4/CyLib.c **** *  CySysFlashSetWaitCycles() description for more information.
ARM GAS  C:\Users\moxon\AppData\Local\Temp\ccM9MmHX.s 			page 11


 383:.\Generated_Source\PSoC4/CyLib.c **** *
 384:.\Generated_Source\PSoC4/CyLib.c **** *  PSoC 4000: The System Clock (SYSCLK) has maximum speed of 16 MHz, so HFCLK
 385:.\Generated_Source\PSoC4/CyLib.c **** *  and SYSCLK dividers should be selected in a way, to not to exceed 16 MHz for
 386:.\Generated_Source\PSoC4/CyLib.c **** *  the System clock.
 387:.\Generated_Source\PSoC4/CyLib.c **** *
 388:.\Generated_Source\PSoC4/CyLib.c **** *******************************************************************************/
 389:.\Generated_Source\PSoC4/CyLib.c **** #if(CY_IP_SRSSV2)
 390:.\Generated_Source\PSoC4/CyLib.c ****     void CySysClkWriteImoFreq(uint32 freq)
 391:.\Generated_Source\PSoC4/CyLib.c ****     {
 392:.\Generated_Source\PSoC4/CyLib.c ****         #if (CY_IP_FMLT)
 393:.\Generated_Source\PSoC4/CyLib.c ****             volatile uint32   parameters[2u];
 394:.\Generated_Source\PSoC4/CyLib.c ****             volatile uint32   regValues[4u];
 395:.\Generated_Source\PSoC4/CyLib.c ****         #else
 396:.\Generated_Source\PSoC4/CyLib.c ****             uint8  bgTrim4;
 397:.\Generated_Source\PSoC4/CyLib.c ****             uint8  bgTrim5;
 398:.\Generated_Source\PSoC4/CyLib.c ****             uint8  newImoTrim2Value;
 399:.\Generated_Source\PSoC4/CyLib.c ****             uint8  currentImoTrim2Value;
 400:.\Generated_Source\PSoC4/CyLib.c ****         #endif /* (CY_IP_FM) */
 401:.\Generated_Source\PSoC4/CyLib.c **** 
 402:.\Generated_Source\PSoC4/CyLib.c ****         #if (CY_PSOC4_4100M || CY_PSOC4_4200M)
 403:.\Generated_Source\PSoC4/CyLib.c ****             uint32 wcoLock = 0u;
 404:.\Generated_Source\PSoC4/CyLib.c ****         #endif  /* #if (CY_PSOC4_4100M || CY_PSOC4_4200M) */
 405:.\Generated_Source\PSoC4/CyLib.c **** 
 406:.\Generated_Source\PSoC4/CyLib.c ****         uint8  interruptState;
 407:.\Generated_Source\PSoC4/CyLib.c **** 
 408:.\Generated_Source\PSoC4/CyLib.c **** 
 409:.\Generated_Source\PSoC4/CyLib.c ****         interruptState = CyEnterCriticalSection();
 410:.\Generated_Source\PSoC4/CyLib.c **** 
 411:.\Generated_Source\PSoC4/CyLib.c ****         #if (CY_PSOC4_4100M || CY_PSOC4_4200M)
 412:.\Generated_Source\PSoC4/CyLib.c ****             if(0u != CySysClkImoGetWcoLock())
 413:.\Generated_Source\PSoC4/CyLib.c ****             {
 414:.\Generated_Source\PSoC4/CyLib.c ****                 wcoLock = 1u;
 415:.\Generated_Source\PSoC4/CyLib.c ****                 CySysClkImoDisableWcoLock();
 416:.\Generated_Source\PSoC4/CyLib.c ****             }
 417:.\Generated_Source\PSoC4/CyLib.c ****         #endif  /* #if (CY_PSOC4_4100M || CY_PSOC4_4200M) */
 418:.\Generated_Source\PSoC4/CyLib.c **** 
 419:.\Generated_Source\PSoC4/CyLib.c ****         #if (CY_IP_FMLT)
 420:.\Generated_Source\PSoC4/CyLib.c **** 
 421:.\Generated_Source\PSoC4/CyLib.c ****             /* FM-Lite Clock Restore */
 422:.\Generated_Source\PSoC4/CyLib.c ****             regValues[0u] = CY_SYS_CLK_IMO_CONFIG_REG;
 423:.\Generated_Source\PSoC4/CyLib.c ****             regValues[1u] = CY_SYS_CLK_SELECT_REG;
 424:.\Generated_Source\PSoC4/CyLib.c ****             regValues[2u] = cyImoFreqMhz2Reg[freq - CY_SYS_CLK_IMO_FREQ_TABLE_OFFSET];
 425:.\Generated_Source\PSoC4/CyLib.c ****             regValues[3u] = CY_FLASH_CTL_REG;
 426:.\Generated_Source\PSoC4/CyLib.c **** 
 427:.\Generated_Source\PSoC4/CyLib.c ****             parameters[0u] =
 428:.\Generated_Source\PSoC4/CyLib.c ****                 (uint32) ((CY_FLASH_KEY_TWO(CY_FLASH_API_OPCODE_CLK_RESTORE) <<  CY_FLASH_PARAM_KEY
 429:.\Generated_Source\PSoC4/CyLib.c ****                             CY_FLASH_KEY_ONE);
 430:.\Generated_Source\PSoC4/CyLib.c ****             parameters[1u] = (uint32) &regValues[0u];
 431:.\Generated_Source\PSoC4/CyLib.c **** 
 432:.\Generated_Source\PSoC4/CyLib.c ****             CY_FLASH_CPUSS_SYSARG_REG = (uint32) &parameters[0u];
 433:.\Generated_Source\PSoC4/CyLib.c ****             CY_FLASH_CPUSS_SYSREQ_REG = CY_FLASH_CPUSS_REQ_START | CY_FLASH_API_OPCODE_CLK_RESTORE;
 434:.\Generated_Source\PSoC4/CyLib.c ****             (void) CY_FLASH_CPUSS_SYSARG_REG;
 435:.\Generated_Source\PSoC4/CyLib.c **** 
 436:.\Generated_Source\PSoC4/CyLib.c ****         #else /* (CY_IP_FM) */
 437:.\Generated_Source\PSoC4/CyLib.c **** 
 438:.\Generated_Source\PSoC4/CyLib.c ****         if ((freq >= CY_SYS_CLK_IMO_MIN_FREQ_MHZ) && (freq <= CY_SYS_CLK_IMO_MAX_FREQ_MHZ))
 439:.\Generated_Source\PSoC4/CyLib.c ****         {
ARM GAS  C:\Users\moxon\AppData\Local\Temp\ccM9MmHX.s 			page 12


 440:.\Generated_Source\PSoC4/CyLib.c ****             if(freq <= CY_SFLASH_IMO_MAXF0_REG)
 441:.\Generated_Source\PSoC4/CyLib.c ****             {
 442:.\Generated_Source\PSoC4/CyLib.c ****                 bgTrim4 = CY_SFLASH_IMO_ABS0_REG;
 443:.\Generated_Source\PSoC4/CyLib.c ****                 bgTrim5 = CY_SFLASH_IMO_TMPCO0_REG;
 444:.\Generated_Source\PSoC4/CyLib.c ****             }
 445:.\Generated_Source\PSoC4/CyLib.c ****             else if(freq <= CY_SFLASH_IMO_MAXF1_REG)
 446:.\Generated_Source\PSoC4/CyLib.c ****             {
 447:.\Generated_Source\PSoC4/CyLib.c ****                 bgTrim4 = CY_SFLASH_IMO_ABS1_REG;
 448:.\Generated_Source\PSoC4/CyLib.c ****                 bgTrim5 = CY_SFLASH_IMO_TMPCO1_REG;
 449:.\Generated_Source\PSoC4/CyLib.c ****             }
 450:.\Generated_Source\PSoC4/CyLib.c ****             else if(freq <= CY_SFLASH_IMO_MAXF2_REG)
 451:.\Generated_Source\PSoC4/CyLib.c ****             {
 452:.\Generated_Source\PSoC4/CyLib.c ****                 bgTrim4 = CY_SFLASH_IMO_ABS2_REG;
 453:.\Generated_Source\PSoC4/CyLib.c ****                 bgTrim5 = CY_SFLASH_IMO_TMPCO2_REG;
 454:.\Generated_Source\PSoC4/CyLib.c ****             }
 455:.\Generated_Source\PSoC4/CyLib.c ****             else if(freq <= CY_SFLASH_IMO_MAXF3_REG)
 456:.\Generated_Source\PSoC4/CyLib.c ****             {
 457:.\Generated_Source\PSoC4/CyLib.c ****                 bgTrim4 = CY_SFLASH_IMO_ABS3_REG;
 458:.\Generated_Source\PSoC4/CyLib.c ****                 bgTrim5 = CY_SFLASH_IMO_TMPCO3_REG;
 459:.\Generated_Source\PSoC4/CyLib.c ****             }
 460:.\Generated_Source\PSoC4/CyLib.c ****             else
 461:.\Generated_Source\PSoC4/CyLib.c ****             {
 462:.\Generated_Source\PSoC4/CyLib.c ****                 bgTrim4 = CY_SFLASH_IMO_ABS4_REG;
 463:.\Generated_Source\PSoC4/CyLib.c ****                 bgTrim5 = CY_SFLASH_IMO_TMPCO4_REG;
 464:.\Generated_Source\PSoC4/CyLib.c ****             }
 465:.\Generated_Source\PSoC4/CyLib.c **** 
 466:.\Generated_Source\PSoC4/CyLib.c ****             /* Get IMO_TRIM2 value for the new frequency */
 467:.\Generated_Source\PSoC4/CyLib.c ****             newImoTrim2Value = cyImoFreqMhz2Reg[freq - CY_SYS_CLK_IMO_FREQ_TABLE_OFFSET];
 468:.\Generated_Source\PSoC4/CyLib.c **** 
 469:.\Generated_Source\PSoC4/CyLib.c **** 
 470:.\Generated_Source\PSoC4/CyLib.c ****             /**********************************************`*****************************
 471:.\Generated_Source\PSoC4/CyLib.c ****             * The IMO can have a different trim per frequency. To avoid possible corner
 472:.\Generated_Source\PSoC4/CyLib.c ****             * cases where a trim change can exceed the maximum frequency, the trim must
 473:.\Generated_Source\PSoC4/CyLib.c ****             * be applied at a frequency that is low enough.
 474:.\Generated_Source\PSoC4/CyLib.c ****             *
 475:.\Generated_Source\PSoC4/CyLib.c ****             * Comparing IMO_TRIM2 values for the current and new frequencies, since
 476:.\Generated_Source\PSoC4/CyLib.c ****             * IMO_TRIM2 value as a function of IMO frequency is a strictly increasing
 477:.\Generated_Source\PSoC4/CyLib.c ****             * function and is time-invariant.
 478:.\Generated_Source\PSoC4/CyLib.c ****             ***************************************************************************/
 479:.\Generated_Source\PSoC4/CyLib.c ****             if ((newImoTrim2Value >= CY_SYS_CLK_IMO_BOUNDARY_FREQ_TRIM2) && (freq >= CY_SYS_CLK_IMO
 480:.\Generated_Source\PSoC4/CyLib.c ****             {
 481:.\Generated_Source\PSoC4/CyLib.c ****                 /* Set boundary IMO frequency: safe for IMO above 48 MHZ trimming */
 482:.\Generated_Source\PSoC4/CyLib.c ****                 CY_SYS_CLK_IMO_TRIM2_REG = (uint32) cyImoFreqMhz2Reg[CY_SYS_CLK_IMO_TEMP_FREQ_MHZ -
 483:.\Generated_Source\PSoC4/CyLib.c ****                                                                      CY_SYS_CLK_IMO_FREQ_TABLE_OFFS
 484:.\Generated_Source\PSoC4/CyLib.c **** 
 485:.\Generated_Source\PSoC4/CyLib.c ****                 CyDelayCycles(CY_SYS_CLK_IMO_FREQ_TIMEOUT_CYCLES);
 486:.\Generated_Source\PSoC4/CyLib.c **** 
 487:.\Generated_Source\PSoC4/CyLib.c ****                 currentImoTrim2Value = CY_SYS_CLK_IMO_TEMP_FREQ_TRIM2;
 488:.\Generated_Source\PSoC4/CyLib.c ****             }
 489:.\Generated_Source\PSoC4/CyLib.c ****             else
 490:.\Generated_Source\PSoC4/CyLib.c ****             {
 491:.\Generated_Source\PSoC4/CyLib.c ****                 currentImoTrim2Value = (uint8) (CY_SYS_CLK_IMO_TRIM2_REG & CY_SYS_CLK_IMO_FREQ_BITS
 492:.\Generated_Source\PSoC4/CyLib.c ****             }
 493:.\Generated_Source\PSoC4/CyLib.c **** 
 494:.\Generated_Source\PSoC4/CyLib.c **** 
 495:.\Generated_Source\PSoC4/CyLib.c ****             /***************************************************************************
 496:.\Generated_Source\PSoC4/CyLib.c ****             * A trim change needs to be allowed to settle (within 5us) before the Freq
ARM GAS  C:\Users\moxon\AppData\Local\Temp\ccM9MmHX.s 			page 13


 497:.\Generated_Source\PSoC4/CyLib.c ****             * can be changed to a new frequency.
 498:.\Generated_Source\PSoC4/CyLib.c ****             *
 499:.\Generated_Source\PSoC4/CyLib.c ****             * Comparing IMO_TRIM2 values for the current and new frequencies, since
 500:.\Generated_Source\PSoC4/CyLib.c ****             * IMO_TRIM2 value as a function of IMO frequency is a strictly increasing
 501:.\Generated_Source\PSoC4/CyLib.c ****             * function and is time-invariant.
 502:.\Generated_Source\PSoC4/CyLib.c ****             ***************************************************************************/
 503:.\Generated_Source\PSoC4/CyLib.c ****             if (newImoTrim2Value < currentImoTrim2Value)
 504:.\Generated_Source\PSoC4/CyLib.c ****             {
 505:.\Generated_Source\PSoC4/CyLib.c ****                 /* Set new IMO frequency */
 506:.\Generated_Source\PSoC4/CyLib.c ****                 CY_SYS_CLK_IMO_TRIM2_REG = cyImoFreqMhz2Reg[freq - CY_SYS_CLK_IMO_FREQ_TABLE_OFFSET
 507:.\Generated_Source\PSoC4/CyLib.c ****                 CyDelayCycles(CY_SYS_CLK_IMO_FREQ_TIMEOUT_CYCLES);
 508:.\Generated_Source\PSoC4/CyLib.c ****             }
 509:.\Generated_Source\PSoC4/CyLib.c **** 
 510:.\Generated_Source\PSoC4/CyLib.c ****             /* Set trims for the new IMO frequency */
 511:.\Generated_Source\PSoC4/CyLib.c ****             CY_SYS_CLK_IMO_TRIM1_REG = (uint32) CY_SFLASH_IMO_TRIM_REG(freq - CY_SYS_CLK_IMO_FREQ_T
 512:.\Generated_Source\PSoC4/CyLib.c ****             CY_PWR_BG_TRIM4_REG  = bgTrim4;
 513:.\Generated_Source\PSoC4/CyLib.c ****             CY_PWR_BG_TRIM5_REG  = bgTrim5;
 514:.\Generated_Source\PSoC4/CyLib.c ****             CyDelayUs(CY_SYS_CLK_IMO_TRIM_TIMEOUT_US);
 515:.\Generated_Source\PSoC4/CyLib.c **** 
 516:.\Generated_Source\PSoC4/CyLib.c ****             if (newImoTrim2Value > currentImoTrim2Value)
 517:.\Generated_Source\PSoC4/CyLib.c ****             {
 518:.\Generated_Source\PSoC4/CyLib.c ****                 /* Set new IMO frequency */
 519:.\Generated_Source\PSoC4/CyLib.c ****                 CY_SYS_CLK_IMO_TRIM2_REG = cyImoFreqMhz2Reg[freq - CY_SYS_CLK_IMO_FREQ_TABLE_OFFSET
 520:.\Generated_Source\PSoC4/CyLib.c ****                 CyDelayCycles(CY_SYS_CLK_IMO_FREQ_TIMEOUT_CYCLES);
 521:.\Generated_Source\PSoC4/CyLib.c ****             }
 522:.\Generated_Source\PSoC4/CyLib.c ****         }
 523:.\Generated_Source\PSoC4/CyLib.c ****         else
 524:.\Generated_Source\PSoC4/CyLib.c ****         {
 525:.\Generated_Source\PSoC4/CyLib.c ****             /* Halt CPU in debug mode if new frequency is invalid */
 526:.\Generated_Source\PSoC4/CyLib.c ****             CYASSERT(0u != 0u);
 527:.\Generated_Source\PSoC4/CyLib.c ****         }
 528:.\Generated_Source\PSoC4/CyLib.c **** 
 529:.\Generated_Source\PSoC4/CyLib.c ****         #endif /* (CY_IP_FMLT) */
 530:.\Generated_Source\PSoC4/CyLib.c **** 
 531:.\Generated_Source\PSoC4/CyLib.c ****         #if (CY_PSOC4_4100M || CY_PSOC4_4200M)
 532:.\Generated_Source\PSoC4/CyLib.c ****             if (1u == wcoLock)
 533:.\Generated_Source\PSoC4/CyLib.c ****             {
 534:.\Generated_Source\PSoC4/CyLib.c ****                 CySysClkImoEnableWcoLock();
 535:.\Generated_Source\PSoC4/CyLib.c ****             }
 536:.\Generated_Source\PSoC4/CyLib.c ****         #endif  /* #if (CY_PSOC4_4100M || CY_PSOC4_4200M) */
 537:.\Generated_Source\PSoC4/CyLib.c **** 
 538:.\Generated_Source\PSoC4/CyLib.c ****         CyExitCriticalSection(interruptState);
 539:.\Generated_Source\PSoC4/CyLib.c ****     }
 540:.\Generated_Source\PSoC4/CyLib.c **** 
 541:.\Generated_Source\PSoC4/CyLib.c **** #else
 542:.\Generated_Source\PSoC4/CyLib.c **** 
 543:.\Generated_Source\PSoC4/CyLib.c ****     void CySysClkWriteImoFreq(uint32 freq)
 544:.\Generated_Source\PSoC4/CyLib.c ****     {
 545:.\Generated_Source\PSoC4/CyLib.c ****         uint8  interruptState;
 546:.\Generated_Source\PSoC4/CyLib.c **** 
 547:.\Generated_Source\PSoC4/CyLib.c ****         if ((freq == 24u) || (freq == 32u) || (freq == 48u))
 548:.\Generated_Source\PSoC4/CyLib.c ****         {
 549:.\Generated_Source\PSoC4/CyLib.c ****             interruptState = CyEnterCriticalSection();
 550:.\Generated_Source\PSoC4/CyLib.c **** 
 551:.\Generated_Source\PSoC4/CyLib.c ****             /* Set IMO to 24 MHz - CLK_IMO_SELECT.FREQ = 0 */
 552:.\Generated_Source\PSoC4/CyLib.c ****             CY_SYS_CLK_IMO_SELECT_REG &= ((uint32) ~CY_SYS_CLK_IMO_SELECT_FREQ_MASK);
 553:.\Generated_Source\PSoC4/CyLib.c **** 
ARM GAS  C:\Users\moxon\AppData\Local\Temp\ccM9MmHX.s 			page 14


 554:.\Generated_Source\PSoC4/CyLib.c ****             /* Apply coarse trim */
 555:.\Generated_Source\PSoC4/CyLib.c ****             CY_SYS_CLK_IMO_TRIM1_REG = (CY_SYS_CLK_IMO_TRIM1_REG & ((uint32) ~CY_SYS_CLK_IMO_TRIM1_
 556:.\Generated_Source\PSoC4/CyLib.c ****                 (CY_SFLASH_IMO_TRIM_REG(freq - CY_SYS_CLK_IMO_MIN_FREQ_MHZ) & CY_SYS_CLK_IMO_TRIM1_
 557:.\Generated_Source\PSoC4/CyLib.c **** 
 558:.\Generated_Source\PSoC4/CyLib.c ****             /* Zero out fine trim */
 559:.\Generated_Source\PSoC4/CyLib.c ****             CY_SYS_CLK_IMO_TRIM2_REG = CY_SYS_CLK_IMO_TRIM2_REG & ((uint32) ~CY_SYS_CLK_IMO_TRIM2_F
 560:.\Generated_Source\PSoC4/CyLib.c **** 
 561:.\Generated_Source\PSoC4/CyLib.c ****             /* Apply TC trim */
 562:.\Generated_Source\PSoC4/CyLib.c ****             CY_SYS_CLK_IMO_TRIM3_REG = (CY_SYS_CLK_IMO_TRIM3_REG & ((uint32) ~CY_SYS_CLK_IMO_TRIM3_
 563:.\Generated_Source\PSoC4/CyLib.c ****                 (CY_SFLASH_IMO_TCTRIM_REG(freq - CY_SYS_CLK_IMO_MIN_FREQ_MHZ) & CY_SYS_CLK_IMO_TRIM
 564:.\Generated_Source\PSoC4/CyLib.c **** 
 565:.\Generated_Source\PSoC4/CyLib.c ****             CyDelayCycles(CY_SYS_CLK_IMO_TRIM_DELAY_US);
 566:.\Generated_Source\PSoC4/CyLib.c **** 
 567:.\Generated_Source\PSoC4/CyLib.c ****             if (freq > CY_SYS_CLK_IMO_MIN_FREQ_MHZ)
 568:.\Generated_Source\PSoC4/CyLib.c ****             {
 569:.\Generated_Source\PSoC4/CyLib.c ****                 /* Select nearby intermediate frequency */
 570:.\Generated_Source\PSoC4/CyLib.c ****                 CY_SYS_CLK_IMO_SELECT_REG = (CY_SYS_CLK_IMO_SELECT_REG & ((uint32) ~CY_SYS_CLK_IMO_
 571:.\Generated_Source\PSoC4/CyLib.c ****                     (((freq - 4u - CY_SYS_CLK_IMO_MIN_FREQ_MHZ) >> 2u) & CY_SYS_CLK_IMO_SELECT_FREQ
 572:.\Generated_Source\PSoC4/CyLib.c **** 
 573:.\Generated_Source\PSoC4/CyLib.c ****                 CyDelayCycles(CY_SYS_CLK_IMO_TRIM_DELAY_US);
 574:.\Generated_Source\PSoC4/CyLib.c **** 
 575:.\Generated_Source\PSoC4/CyLib.c ****                 /* Make small step to final frequency */
 576:.\Generated_Source\PSoC4/CyLib.c ****                 /* Select nearby intermediate frequency */
 577:.\Generated_Source\PSoC4/CyLib.c ****                 CY_SYS_CLK_IMO_SELECT_REG = (CY_SYS_CLK_IMO_SELECT_REG & ((uint32) ~CY_SYS_CLK_IMO_
 578:.\Generated_Source\PSoC4/CyLib.c ****                     (((freq - CY_SYS_CLK_IMO_MIN_FREQ_MHZ) >> 2u) & CY_SYS_CLK_IMO_SELECT_FREQ_MASK
 579:.\Generated_Source\PSoC4/CyLib.c ****             }
 580:.\Generated_Source\PSoC4/CyLib.c **** 
 581:.\Generated_Source\PSoC4/CyLib.c ****             CyExitCriticalSection(interruptState);
 582:.\Generated_Source\PSoC4/CyLib.c ****         }
 583:.\Generated_Source\PSoC4/CyLib.c ****         else
 584:.\Generated_Source\PSoC4/CyLib.c ****         {
 585:.\Generated_Source\PSoC4/CyLib.c ****             /* Halt CPU in debug mode if new frequency is invalid */
 586:.\Generated_Source\PSoC4/CyLib.c ****             CYASSERT(0u != 0u);
 587:.\Generated_Source\PSoC4/CyLib.c ****         }
 588:.\Generated_Source\PSoC4/CyLib.c ****     }
 589:.\Generated_Source\PSoC4/CyLib.c **** 
 590:.\Generated_Source\PSoC4/CyLib.c **** #endif /* (CY_IP_SRSSV2) */
 591:.\Generated_Source\PSoC4/CyLib.c **** 
 592:.\Generated_Source\PSoC4/CyLib.c **** 
 593:.\Generated_Source\PSoC4/CyLib.c **** #if(CY_IP_SRSSLT)
 594:.\Generated_Source\PSoC4/CyLib.c ****     /*******************************************************************************
 595:.\Generated_Source\PSoC4/CyLib.c ****     * Function Name: CySysClkWriteHfclkDiv
 596:.\Generated_Source\PSoC4/CyLib.c ****     ********************************************************************************
 597:.\Generated_Source\PSoC4/CyLib.c ****     *
 598:.\Generated_Source\PSoC4/CyLib.c ****     * Summary:
 599:.\Generated_Source\PSoC4/CyLib.c ****     *  Selects the pre-scaler divider value for HFCLK from IMO.
 600:.\Generated_Source\PSoC4/CyLib.c ****     *
 601:.\Generated_Source\PSoC4/CyLib.c ****     *  The HFCLK predivider allows the device to divide the HFCLK selection mux
 602:.\Generated_Source\PSoC4/CyLib.c ****     *  input before use as HFCLK. The predivider is capable of dividing the HFCLK by
 603:.\Generated_Source\PSoC4/CyLib.c ****     *  powers of 2 between 1 and 8.
 604:.\Generated_Source\PSoC4/CyLib.c ****     *
 605:.\Generated_Source\PSoC4/CyLib.c ****     *  Note HFCLK's frequency cannot exceed 16 MHz. This API is applicable for
 606:.\Generated_Source\PSoC4/CyLib.c ****     *  PSoC 4000 family of devices only.
 607:.\Generated_Source\PSoC4/CyLib.c ****     *
 608:.\Generated_Source\PSoC4/CyLib.c ****     *
 609:.\Generated_Source\PSoC4/CyLib.c ****     * Parameters:
 610:.\Generated_Source\PSoC4/CyLib.c ****     *  divider: HF clock divider value
ARM GAS  C:\Users\moxon\AppData\Local\Temp\ccM9MmHX.s 			page 15


 611:.\Generated_Source\PSoC4/CyLib.c ****     *   Define                        Description
 612:.\Generated_Source\PSoC4/CyLib.c ****     *   CY_SYS_CLK_HFCLK_DIV_NODIV    Transparent mode (w/o dividing)
 613:.\Generated_Source\PSoC4/CyLib.c ****     *   CY_SYS_CLK_HFCLK_DIV_2        Divide selected clock source by 2
 614:.\Generated_Source\PSoC4/CyLib.c ****     *   CY_SYS_CLK_HFCLK_DIV_4        Divide selected clock source by 4
 615:.\Generated_Source\PSoC4/CyLib.c ****     *   CY_SYS_CLK_HFCLK_DIV_8        Divide selected clock source by 8
 616:.\Generated_Source\PSoC4/CyLib.c ****     *
 617:.\Generated_Source\PSoC4/CyLib.c ****     * Return:
 618:.\Generated_Source\PSoC4/CyLib.c ****     *  None
 619:.\Generated_Source\PSoC4/CyLib.c ****     *
 620:.\Generated_Source\PSoC4/CyLib.c ****     * Side Effects:
 621:.\Generated_Source\PSoC4/CyLib.c ****     *  If the SYSCLK clock frequency increases during the device operation, call
 622:.\Generated_Source\PSoC4/CyLib.c ****     *  CySysFlashSetWaitCycles() with the appropriate parameter to adjust the number
 623:.\Generated_Source\PSoC4/CyLib.c ****     *  of clock cycles the cache will wait before sampling data comes back from
 624:.\Generated_Source\PSoC4/CyLib.c ****     *  Flash. If the SYSCLK clock frequency decreases, you can call
 625:.\Generated_Source\PSoC4/CyLib.c ****     *  CySysFlashSetWaitCycles() to improve the CPU performance. See
 626:.\Generated_Source\PSoC4/CyLib.c ****     *  CySysFlashSetWaitCycles() description for more information.
 627:.\Generated_Source\PSoC4/CyLib.c ****     *
 628:.\Generated_Source\PSoC4/CyLib.c ****     *******************************************************************************/
 629:.\Generated_Source\PSoC4/CyLib.c ****     void CySysClkWriteHfclkDiv(uint32 divider)
 630:.\Generated_Source\PSoC4/CyLib.c ****     {
 631:.\Generated_Source\PSoC4/CyLib.c ****         uint8  interruptState;
 632:.\Generated_Source\PSoC4/CyLib.c **** 
 633:.\Generated_Source\PSoC4/CyLib.c ****         interruptState = CyEnterCriticalSection();
 634:.\Generated_Source\PSoC4/CyLib.c **** 
 635:.\Generated_Source\PSoC4/CyLib.c ****         CY_SYS_CLK_SELECT_REG = ((CY_SYS_CLK_SELECT_REG & ((uint32) (~(CY_SYS_CLK_SELECT_HFCLK_DIV_
 636:.\Generated_Source\PSoC4/CyLib.c ****                                         CY_SYS_CLK_SELECT_HFCLK_DIV_SHIFT)))) |
 637:.\Generated_Source\PSoC4/CyLib.c ****                     ((uint32)((divider & CY_SYS_CLK_SELECT_HFCLK_DIV_MASK) << CY_SYS_CLK_SELECT_HFC
 638:.\Generated_Source\PSoC4/CyLib.c **** 
 639:.\Generated_Source\PSoC4/CyLib.c ****         CyExitCriticalSection(interruptState);
 640:.\Generated_Source\PSoC4/CyLib.c ****     }
 641:.\Generated_Source\PSoC4/CyLib.c **** #endif /* (CY_IP_SRSSLT) */
 642:.\Generated_Source\PSoC4/CyLib.c **** 
 643:.\Generated_Source\PSoC4/CyLib.c **** 
 644:.\Generated_Source\PSoC4/CyLib.c **** #if (CY_PSOC4_4100BL || CY_PSOC4_4200BL)
 645:.\Generated_Source\PSoC4/CyLib.c **** 
 646:.\Generated_Source\PSoC4/CyLib.c ****     /*******************************************************************************
 647:.\Generated_Source\PSoC4/CyLib.c ****     * Function Name: CySysClkEcoStart
 648:.\Generated_Source\PSoC4/CyLib.c ****     ********************************************************************************
 649:.\Generated_Source\PSoC4/CyLib.c ****     *
 650:.\Generated_Source\PSoC4/CyLib.c ****     * Summary:
 651:.\Generated_Source\PSoC4/CyLib.c ****     *  Starts the External Crystal Oscillator (ECO). Refer to the device datasheet
 652:.\Generated_Source\PSoC4/CyLib.c ****     *  for the ECO startup time.
 653:.\Generated_Source\PSoC4/CyLib.c ****     *
 654:.\Generated_Source\PSoC4/CyLib.c ****     *  The timeout interval is measured based on the system frequency defined by
 655:.\Generated_Source\PSoC4/CyLib.c ****     *  PSoC Creator at build time. If System clock frequency is changed in
 656:.\Generated_Source\PSoC4/CyLib.c ****     *  runtime, the CyDelayFreq() with the appropriate parameter should be called.
 657:.\Generated_Source\PSoC4/CyLib.c ****     *
 658:.\Generated_Source\PSoC4/CyLib.c ****     * Parameters:
 659:.\Generated_Source\PSoC4/CyLib.c ****     *  timeoutUs: Timeout in microseconds. If zero is specified, the function
 660:.\Generated_Source\PSoC4/CyLib.c ****     *             starts the crystal and returns CYRET_SUCCESS. If non-zero
 661:.\Generated_Source\PSoC4/CyLib.c ****     *             value is passed, the CYRET_SUCCESS is returned once crystal
 662:.\Generated_Source\PSoC4/CyLib.c ****     *             is oscillating and amplitude reached 60% and it does not mean
 663:.\Generated_Source\PSoC4/CyLib.c ****     *             24 MHz crystal is within 50 ppm. If it is not oscillating or
 664:.\Generated_Source\PSoC4/CyLib.c ****     *             amplitude didn't reach 60% after specified amount of time, the
 665:.\Generated_Source\PSoC4/CyLib.c ****     *             CYRET_TIMEOUT is returned.
 666:.\Generated_Source\PSoC4/CyLib.c ****     *
 667:.\Generated_Source\PSoC4/CyLib.c ****     * Return:
ARM GAS  C:\Users\moxon\AppData\Local\Temp\ccM9MmHX.s 			page 16


 668:.\Generated_Source\PSoC4/CyLib.c ****     *   CYRET_SUCCESS - Completed successfully. The ECO is oscillating and amplitude
 669:.\Generated_Source\PSoC4/CyLib.c ****     *                   reached 60% and it does not mean 24 MHz crystal is within
 670:.\Generated_Source\PSoC4/CyLib.c ****     *                   50 ppm.
 671:.\Generated_Source\PSoC4/CyLib.c ****     *   CYRET_TIMEOUT - Timeout occurred.
 672:.\Generated_Source\PSoC4/CyLib.c ****     *
 673:.\Generated_Source\PSoC4/CyLib.c ****     *******************************************************************************/
 674:.\Generated_Source\PSoC4/CyLib.c ****     cystatus CySysClkEcoStart(uint32 timeoutUs)
 675:.\Generated_Source\PSoC4/CyLib.c ****     {
 676:.\Generated_Source\PSoC4/CyLib.c ****         cystatus status = CYRET_SUCCESS;
 677:.\Generated_Source\PSoC4/CyLib.c **** 
 678:.\Generated_Source\PSoC4/CyLib.c ****         /* Enable the RF oscillator band gap */
 679:.\Generated_Source\PSoC4/CyLib.c ****         CY_SYS_XTAL_BLESS_RF_CONFIG_REG |= CY_SYS_XTAL_BLESS_RF_CONFIG_RF_ENABLE;
 680:.\Generated_Source\PSoC4/CyLib.c **** 
 681:.\Generated_Source\PSoC4/CyLib.c ****         /* Update trimming register */
 682:.\Generated_Source\PSoC4/CyLib.c ****         CY_SYS_XTAL_BLERD_BB_XO_REG = CY_SYS_XTAL_BLERD_BB_XO_TRIM;
 683:.\Generated_Source\PSoC4/CyLib.c **** 
 684:.\Generated_Source\PSoC4/CyLib.c ****         /* Enable the Crystal */
 685:.\Generated_Source\PSoC4/CyLib.c ****         CY_SYS_XTAL_BLERD_DBUS_REG |= CY_SYS_XTAL_BLERD_DBUS_XTAL_ENABLE;
 686:.\Generated_Source\PSoC4/CyLib.c **** 
 687:.\Generated_Source\PSoC4/CyLib.c ****         if(timeoutUs > 0u)
 688:.\Generated_Source\PSoC4/CyLib.c ****         {
 689:.\Generated_Source\PSoC4/CyLib.c ****             status = CYRET_TIMEOUT;
 690:.\Generated_Source\PSoC4/CyLib.c **** 
 691:.\Generated_Source\PSoC4/CyLib.c ****             for( ; timeoutUs > 0u; timeoutUs--)
 692:.\Generated_Source\PSoC4/CyLib.c ****             {
 693:.\Generated_Source\PSoC4/CyLib.c ****                 CyDelayUs(1u);
 694:.\Generated_Source\PSoC4/CyLib.c **** 
 695:.\Generated_Source\PSoC4/CyLib.c ****                 if(0u != CySysClkEcoReadStatus())
 696:.\Generated_Source\PSoC4/CyLib.c ****                 {
 697:.\Generated_Source\PSoC4/CyLib.c ****                     status = CYRET_SUCCESS;
 698:.\Generated_Source\PSoC4/CyLib.c ****                     break;
 699:.\Generated_Source\PSoC4/CyLib.c ****                 }
 700:.\Generated_Source\PSoC4/CyLib.c ****             }
 701:.\Generated_Source\PSoC4/CyLib.c **** 
 702:.\Generated_Source\PSoC4/CyLib.c ****         }
 703:.\Generated_Source\PSoC4/CyLib.c **** 
 704:.\Generated_Source\PSoC4/CyLib.c ****         return(status);
 705:.\Generated_Source\PSoC4/CyLib.c ****     }
 706:.\Generated_Source\PSoC4/CyLib.c **** 
 707:.\Generated_Source\PSoC4/CyLib.c **** 
 708:.\Generated_Source\PSoC4/CyLib.c ****     /*******************************************************************************
 709:.\Generated_Source\PSoC4/CyLib.c ****     * Function Name: CySysClkEcoStop
 710:.\Generated_Source\PSoC4/CyLib.c ****     ********************************************************************************
 711:.\Generated_Source\PSoC4/CyLib.c ****     *
 712:.\Generated_Source\PSoC4/CyLib.c ****     * Summary:
 713:.\Generated_Source\PSoC4/CyLib.c ****     *  Stops the megahertz crystal.
 714:.\Generated_Source\PSoC4/CyLib.c ****     *
 715:.\Generated_Source\PSoC4/CyLib.c ****     * Parameters:
 716:.\Generated_Source\PSoC4/CyLib.c ****     *  None
 717:.\Generated_Source\PSoC4/CyLib.c ****     *
 718:.\Generated_Source\PSoC4/CyLib.c ****     * Return:
 719:.\Generated_Source\PSoC4/CyLib.c ****     *  None
 720:.\Generated_Source\PSoC4/CyLib.c ****     *
 721:.\Generated_Source\PSoC4/CyLib.c ****     *******************************************************************************/
 722:.\Generated_Source\PSoC4/CyLib.c ****     void CySysClkEcoStop(void)
 723:.\Generated_Source\PSoC4/CyLib.c ****     {
 724:.\Generated_Source\PSoC4/CyLib.c ****         /* Disable the RF oscillator band gap */
ARM GAS  C:\Users\moxon\AppData\Local\Temp\ccM9MmHX.s 			page 17


 725:.\Generated_Source\PSoC4/CyLib.c ****         CY_SYS_XTAL_BLESS_RF_CONFIG_REG &= (uint32) ~CY_SYS_XTAL_BLESS_RF_CONFIG_RF_ENABLE;
 726:.\Generated_Source\PSoC4/CyLib.c **** 
 727:.\Generated_Source\PSoC4/CyLib.c ****         /* Disable the Crystal */
 728:.\Generated_Source\PSoC4/CyLib.c ****         CY_SYS_XTAL_BLERD_DBUS_REG &= (uint32) ~CY_SYS_XTAL_BLERD_DBUS_XTAL_ENABLE;
 729:.\Generated_Source\PSoC4/CyLib.c ****     }
 730:.\Generated_Source\PSoC4/CyLib.c **** 
 731:.\Generated_Source\PSoC4/CyLib.c **** 
 732:.\Generated_Source\PSoC4/CyLib.c ****     /*******************************************************************************
 733:.\Generated_Source\PSoC4/CyLib.c ****     * Function Name: CySysClkEcoReadStatus
 734:.\Generated_Source\PSoC4/CyLib.c ****     ********************************************************************************
 735:.\Generated_Source\PSoC4/CyLib.c ****     *
 736:.\Generated_Source\PSoC4/CyLib.c ****     * Summary:
 737:.\Generated_Source\PSoC4/CyLib.c ****     *  Read status bit (50 ppm reached) for the megahertz crystal.
 738:.\Generated_Source\PSoC4/CyLib.c ****     *
 739:.\Generated_Source\PSoC4/CyLib.c ****     * Parameters:
 740:.\Generated_Source\PSoC4/CyLib.c ****     *  None
 741:.\Generated_Source\PSoC4/CyLib.c ****     *
 742:.\Generated_Source\PSoC4/CyLib.c ****     * Return:
 743:.\Generated_Source\PSoC4/CyLib.c ****     *  Non-zero indicates that XTAL output reached 50 ppm.
 744:.\Generated_Source\PSoC4/CyLib.c ****     *
 745:.\Generated_Source\PSoC4/CyLib.c ****     *******************************************************************************/
 746:.\Generated_Source\PSoC4/CyLib.c ****     uint32 CySysClkEcoReadStatus(void)
 747:.\Generated_Source\PSoC4/CyLib.c ****     {
 748:.\Generated_Source\PSoC4/CyLib.c ****         return (CY_SYS_XTAL_BLERD_FSM_REG & CY_SYS_XTAL_BLERD_FSM_XO_AMP_DETECT);
 749:.\Generated_Source\PSoC4/CyLib.c ****     }
 750:.\Generated_Source\PSoC4/CyLib.c **** 
 751:.\Generated_Source\PSoC4/CyLib.c **** 
 752:.\Generated_Source\PSoC4/CyLib.c ****     /*******************************************************************************
 753:.\Generated_Source\PSoC4/CyLib.c ****     * Function Name: CySysClkWriteEcoDiv
 754:.\Generated_Source\PSoC4/CyLib.c ****     ********************************************************************************
 755:.\Generated_Source\PSoC4/CyLib.c ****     *
 756:.\Generated_Source\PSoC4/CyLib.c ****     * Summary:
 757:.\Generated_Source\PSoC4/CyLib.c ****     *  Selects value for the ECO divider.
 758:.\Generated_Source\PSoC4/CyLib.c ****     *
 759:.\Generated_Source\PSoC4/CyLib.c ****     *  The ECO must not be the HFCLK clock source when this function is called.
 760:.\Generated_Source\PSoC4/CyLib.c ****     *  The HFCLK source can be changed to the other clock source by call to the
 761:.\Generated_Source\PSoC4/CyLib.c ****     *  CySysClkWriteHfclkDirect() function. If the ECO sources the HFCLK this
 762:.\Generated_Source\PSoC4/CyLib.c ****     *  function will not have any effect if compiler in release mode, and halt the
 763:.\Generated_Source\PSoC4/CyLib.c ****     *  CPU when compiler in debug mode.
 764:.\Generated_Source\PSoC4/CyLib.c ****     *
 765:.\Generated_Source\PSoC4/CyLib.c ****     * Parameters:
 766:.\Generated_Source\PSoC4/CyLib.c ****     *  divider: Power of 2 divider selection.
 767:.\Generated_Source\PSoC4/CyLib.c ****     *
 768:.\Generated_Source\PSoC4/CyLib.c ****     *   Define                        Description
 769:.\Generated_Source\PSoC4/CyLib.c ****     *   CY_SYS_CLK_ECO_DIV1             HFCLK = ECO / 1
 770:.\Generated_Source\PSoC4/CyLib.c ****     *   CY_SYS_CLK_ECO_DIV2             HFCLK = ECO / 2
 771:.\Generated_Source\PSoC4/CyLib.c ****     *   CY_SYS_CLK_ECO_DIV4             HFCLK = ECO / 4
 772:.\Generated_Source\PSoC4/CyLib.c ****     *   CY_SYS_CLK_ECO_DIV8             HFCLK = ECO / 8
 773:.\Generated_Source\PSoC4/CyLib.c ****     *
 774:.\Generated_Source\PSoC4/CyLib.c ****     * Return:
 775:.\Generated_Source\PSoC4/CyLib.c ****     *  None
 776:.\Generated_Source\PSoC4/CyLib.c ****     *
 777:.\Generated_Source\PSoC4/CyLib.c ****     * Side Effects:
 778:.\Generated_Source\PSoC4/CyLib.c ****     *  If the SYSCLK clock frequency increases during the device operation, call
 779:.\Generated_Source\PSoC4/CyLib.c ****     *  CySysFlashSetWaitCycles() with the appropriate parameter to adjust the number
 780:.\Generated_Source\PSoC4/CyLib.c ****     *  of clock cycles the cache will wait before sampling data comes back from
 781:.\Generated_Source\PSoC4/CyLib.c ****     *  Flash. If the SYSCLK clock frequency decreases, you can call
ARM GAS  C:\Users\moxon\AppData\Local\Temp\ccM9MmHX.s 			page 18


 782:.\Generated_Source\PSoC4/CyLib.c ****     *  CySysFlashSetWaitCycles() to improve the CPU performance. See
 783:.\Generated_Source\PSoC4/CyLib.c ****     *  CySysFlashSetWaitCycles() description for more information.
 784:.\Generated_Source\PSoC4/CyLib.c ****     *
 785:.\Generated_Source\PSoC4/CyLib.c ****     *******************************************************************************/
 786:.\Generated_Source\PSoC4/CyLib.c ****     void CySysClkWriteEcoDiv(uint32 divider)
 787:.\Generated_Source\PSoC4/CyLib.c ****     {
 788:.\Generated_Source\PSoC4/CyLib.c ****         uint8  interruptState;
 789:.\Generated_Source\PSoC4/CyLib.c **** 
 790:.\Generated_Source\PSoC4/CyLib.c ****         if (CY_SYS_CLK_HFCLK_ECO != (CY_SYS_CLK_SELECT_REG & CY_SYS_CLK_SELECT_DIRECT_SEL_MASK))
 791:.\Generated_Source\PSoC4/CyLib.c ****         {
 792:.\Generated_Source\PSoC4/CyLib.c ****             interruptState = CyEnterCriticalSection();
 793:.\Generated_Source\PSoC4/CyLib.c **** 
 794:.\Generated_Source\PSoC4/CyLib.c ****             CY_SYS_CLK_XTAL_CLK_DIV_CONFIG_REG =  (divider & CY_SYS_CLK_XTAL_CLK_DIV_MASK) |
 795:.\Generated_Source\PSoC4/CyLib.c ****                                                   (CY_SYS_CLK_XTAL_CLK_DIV_CONFIG_REG & ((uint32) ~
 796:.\Generated_Source\PSoC4/CyLib.c **** 
 797:.\Generated_Source\PSoC4/CyLib.c ****             CyExitCriticalSection(interruptState);
 798:.\Generated_Source\PSoC4/CyLib.c ****         }
 799:.\Generated_Source\PSoC4/CyLib.c ****         else
 800:.\Generated_Source\PSoC4/CyLib.c ****         {
 801:.\Generated_Source\PSoC4/CyLib.c ****             /* Halt CPU in debug mode if ECO sources HFCLK */
 802:.\Generated_Source\PSoC4/CyLib.c ****             CYASSERT(0u != 0u);
 803:.\Generated_Source\PSoC4/CyLib.c ****         }
 804:.\Generated_Source\PSoC4/CyLib.c ****     }
 805:.\Generated_Source\PSoC4/CyLib.c **** #endif /* (CY_PSOC4_4100BL || CY_PSOC4_4200BL) */
 806:.\Generated_Source\PSoC4/CyLib.c **** 
 807:.\Generated_Source\PSoC4/CyLib.c **** 
 808:.\Generated_Source\PSoC4/CyLib.c **** 
 809:.\Generated_Source\PSoC4/CyLib.c **** 
 810:.\Generated_Source\PSoC4/CyLib.c **** 
 811:.\Generated_Source\PSoC4/CyLib.c **** 
 812:.\Generated_Source\PSoC4/CyLib.c **** #if(CY_IP_SRSSV2)
 813:.\Generated_Source\PSoC4/CyLib.c **** 
 814:.\Generated_Source\PSoC4/CyLib.c ****     /*******************************************************************************
 815:.\Generated_Source\PSoC4/CyLib.c ****     * Function Name: CySysLvdEnable
 816:.\Generated_Source\PSoC4/CyLib.c ****     ********************************************************************************
 817:.\Generated_Source\PSoC4/CyLib.c ****     *
 818:.\Generated_Source\PSoC4/CyLib.c ****     * Summary:
 819:.\Generated_Source\PSoC4/CyLib.c ****     *  Enables the output of the low-voltage monitor when Vddd is at or below the
 820:.\Generated_Source\PSoC4/CyLib.c ****     *  trip point, configures the device to generate an interrupt, and sets the
 821:.\Generated_Source\PSoC4/CyLib.c ****     *  voltage trip level.
 822:.\Generated_Source\PSoC4/CyLib.c ****     *
 823:.\Generated_Source\PSoC4/CyLib.c ****     * Parameters:
 824:.\Generated_Source\PSoC4/CyLib.c ****     *  threshold: Threshold selection for Low Voltage Detect circuit.
 825:.\Generated_Source\PSoC4/CyLib.c ****     *  Threshold variation is +/- 2.5% from these typical voltage choices.
 826:.\Generated_Source\PSoC4/CyLib.c ****     *         Define                     Voltage threshold
 827:.\Generated_Source\PSoC4/CyLib.c ****     *    CY_LVD_THRESHOLD_1_75_V       1.7500 V
 828:.\Generated_Source\PSoC4/CyLib.c ****     *    CY_LVD_THRESHOLD_1_80_V       1.8000 V
 829:.\Generated_Source\PSoC4/CyLib.c ****     *    CY_LVD_THRESHOLD_1_90_V       1.9000 V
 830:.\Generated_Source\PSoC4/CyLib.c ****     *    CY_LVD_THRESHOLD_2_00_V       2.0000 V
 831:.\Generated_Source\PSoC4/CyLib.c ****     *    CY_LVD_THRESHOLD_2_10_V       2.1000 V
 832:.\Generated_Source\PSoC4/CyLib.c ****     *    CY_LVD_THRESHOLD_2_20_V       2.2000 V
 833:.\Generated_Source\PSoC4/CyLib.c ****     *    CY_LVD_THRESHOLD_2_30_V       2.3000 V
 834:.\Generated_Source\PSoC4/CyLib.c ****     *    CY_LVD_THRESHOLD_2_40_V       2.4000 V
 835:.\Generated_Source\PSoC4/CyLib.c ****     *    CY_LVD_THRESHOLD_2_50_V       2.5000 V
 836:.\Generated_Source\PSoC4/CyLib.c ****     *    CY_LVD_THRESHOLD_2_60_V       2.6000 V
 837:.\Generated_Source\PSoC4/CyLib.c ****     *    CY_LVD_THRESHOLD_2_70_V       2.7000 V
 838:.\Generated_Source\PSoC4/CyLib.c ****     *    CY_LVD_THRESHOLD_2_80_V       2.8000 V
ARM GAS  C:\Users\moxon\AppData\Local\Temp\ccM9MmHX.s 			page 19


 839:.\Generated_Source\PSoC4/CyLib.c ****     *    CY_LVD_THRESHOLD_2_90_V       2.9000 V
 840:.\Generated_Source\PSoC4/CyLib.c ****     *    CY_LVD_THRESHOLD_3_00_V       3.0000 V
 841:.\Generated_Source\PSoC4/CyLib.c ****     *    CY_LVD_THRESHOLD_3_20_V       3.2000 V
 842:.\Generated_Source\PSoC4/CyLib.c ****     *    CY_LVD_THRESHOLD_4_50_V       4.5000 V
 843:.\Generated_Source\PSoC4/CyLib.c ****     *
 844:.\Generated_Source\PSoC4/CyLib.c ****     * Return:
 845:.\Generated_Source\PSoC4/CyLib.c ****     *  None
 846:.\Generated_Source\PSoC4/CyLib.c ****     *
 847:.\Generated_Source\PSoC4/CyLib.c ****     *******************************************************************************/
 848:.\Generated_Source\PSoC4/CyLib.c ****     void CySysLvdEnable(uint32 threshold)
 849:.\Generated_Source\PSoC4/CyLib.c ****     {
 850:.\Generated_Source\PSoC4/CyLib.c ****         /* Prevent propagating a false interrupt */
 851:.\Generated_Source\PSoC4/CyLib.c ****         CY_LVD_PWR_INTR_MASK_REG   &= (uint32) ~CY_LVD_PROPAGATE_INT_TO_CPU;
 852:.\Generated_Source\PSoC4/CyLib.c **** 
 853:.\Generated_Source\PSoC4/CyLib.c ****         /* Set specified threshold */
 854:.\Generated_Source\PSoC4/CyLib.c ****         CY_LVD_PWR_VMON_CONFIG_REG = (CY_LVD_PWR_VMON_CONFIG_REG & ~CY_LVD_PWR_VMON_CONFIG_LVD_SEL_
 855:.\Generated_Source\PSoC4/CyLib.c ****                 ((threshold << CY_LVD_PWR_VMON_CONFIG_LVD_SEL_SHIFT) & CY_LVD_PWR_VMON_CONFIG_LVD_S
 856:.\Generated_Source\PSoC4/CyLib.c **** 
 857:.\Generated_Source\PSoC4/CyLib.c ****         /* Enable the LVD. This may cause a false LVD event. */
 858:.\Generated_Source\PSoC4/CyLib.c ****         CY_LVD_PWR_VMON_CONFIG_REG |= CY_LVD_PWR_VMON_CONFIG_LVD_EN;
 859:.\Generated_Source\PSoC4/CyLib.c **** 
 860:.\Generated_Source\PSoC4/CyLib.c ****         /* Wait for the circuit to stabilize */
 861:.\Generated_Source\PSoC4/CyLib.c ****         CyDelayUs(CY_LVD_STABILIZE_TIMEOUT_US);
 862:.\Generated_Source\PSoC4/CyLib.c **** 
 863:.\Generated_Source\PSoC4/CyLib.c ****         /* Clear the false event */
 864:.\Generated_Source\PSoC4/CyLib.c ****         CySysLvdClearInterrupt();
 865:.\Generated_Source\PSoC4/CyLib.c **** 
 866:.\Generated_Source\PSoC4/CyLib.c ****         /* Unmask the interrupt */
 867:.\Generated_Source\PSoC4/CyLib.c ****         CY_LVD_PWR_INTR_MASK_REG   |= CY_LVD_PROPAGATE_INT_TO_CPU;
 868:.\Generated_Source\PSoC4/CyLib.c ****     }
 869:.\Generated_Source\PSoC4/CyLib.c **** 
 870:.\Generated_Source\PSoC4/CyLib.c **** 
 871:.\Generated_Source\PSoC4/CyLib.c ****     /*******************************************************************************
 872:.\Generated_Source\PSoC4/CyLib.c ****     * Function Name: CySysLvdDisable
 873:.\Generated_Source\PSoC4/CyLib.c ****     ********************************************************************************
 874:.\Generated_Source\PSoC4/CyLib.c ****     *
 875:.\Generated_Source\PSoC4/CyLib.c ****     * Summary:
 876:.\Generated_Source\PSoC4/CyLib.c ****     *  Disables the low voltage detection. A low voltage interrupt is disabled.
 877:.\Generated_Source\PSoC4/CyLib.c ****     *
 878:.\Generated_Source\PSoC4/CyLib.c ****     * Parameters:
 879:.\Generated_Source\PSoC4/CyLib.c ****     *  None
 880:.\Generated_Source\PSoC4/CyLib.c ****     *
 881:.\Generated_Source\PSoC4/CyLib.c ****     * Return:
 882:.\Generated_Source\PSoC4/CyLib.c ****     *  None
 883:.\Generated_Source\PSoC4/CyLib.c ****     *
 884:.\Generated_Source\PSoC4/CyLib.c ****     *******************************************************************************/
 885:.\Generated_Source\PSoC4/CyLib.c ****     void CySysLvdDisable(void)
 886:.\Generated_Source\PSoC4/CyLib.c ****     {
 182              		.loc 1 886 0
 183              		.cfi_startproc
 887:.\Generated_Source\PSoC4/CyLib.c ****         CY_LVD_PWR_INTR_MASK_REG   &= ~CY_LVD_PROPAGATE_INT_TO_CPU;
 184              		.loc 1 887 0
 185 0000 054B     		ldr	r3, .L14
 186 0002 0221     		mov	r1, #2
 187 0004 1A68     		ldr	r2, [r3]
 888:.\Generated_Source\PSoC4/CyLib.c ****         CY_LVD_PWR_VMON_CONFIG_REG &= ~CY_LVD_PWR_VMON_CONFIG_LVD_EN;
 889:.\Generated_Source\PSoC4/CyLib.c ****     }
ARM GAS  C:\Users\moxon\AppData\Local\Temp\ccM9MmHX.s 			page 20


 188              		.loc 1 889 0
 189              		@ sp needed
 887:.\Generated_Source\PSoC4/CyLib.c ****         CY_LVD_PWR_INTR_MASK_REG   &= ~CY_LVD_PROPAGATE_INT_TO_CPU;
 190              		.loc 1 887 0
 191 0006 8A43     		bic	r2, r1
 192 0008 1A60     		str	r2, [r3]
 888:.\Generated_Source\PSoC4/CyLib.c ****         CY_LVD_PWR_VMON_CONFIG_REG &= ~CY_LVD_PWR_VMON_CONFIG_LVD_EN;
 193              		.loc 1 888 0
 194 000a 044B     		ldr	r3, .L14+4
 195 000c 0121     		mov	r1, #1
 196 000e 1A68     		ldr	r2, [r3]
 197 0010 8A43     		bic	r2, r1
 198 0012 1A60     		str	r2, [r3]
 199              		.loc 1 889 0
 200 0014 7047     		bx	lr
 201              	.L15:
 202 0016 C046     		.align	2
 203              	.L14:
 204 0018 08000B40 		.word	1074462728
 205 001c 18000B40 		.word	1074462744
 206              		.cfi_endproc
 207              	.LFE6:
 208              		.size	CySysLvdDisable, .-CySysLvdDisable
 209              		.section	.text.CySysLvdGetInterruptSource,"ax",%progbits
 210              		.align	1
 211              		.global	CySysLvdGetInterruptSource
 212              		.code	16
 213              		.thumb_func
 214              		.type	CySysLvdGetInterruptSource, %function
 215              	CySysLvdGetInterruptSource:
 216              	.LFB7:
 890:.\Generated_Source\PSoC4/CyLib.c **** 
 891:.\Generated_Source\PSoC4/CyLib.c **** 
 892:.\Generated_Source\PSoC4/CyLib.c ****     /*******************************************************************************
 893:.\Generated_Source\PSoC4/CyLib.c ****     * Function Name: CySysLvdGetInterruptSource
 894:.\Generated_Source\PSoC4/CyLib.c ****     ********************************************************************************
 895:.\Generated_Source\PSoC4/CyLib.c ****     *
 896:.\Generated_Source\PSoC4/CyLib.c ****     * Summary:
 897:.\Generated_Source\PSoC4/CyLib.c ****     *  Gets the low voltage detection interrupt status (without clearing).
 898:.\Generated_Source\PSoC4/CyLib.c ****     *
 899:.\Generated_Source\PSoC4/CyLib.c ****     * Parameters:
 900:.\Generated_Source\PSoC4/CyLib.c ****     *  None
 901:.\Generated_Source\PSoC4/CyLib.c ****     *
 902:.\Generated_Source\PSoC4/CyLib.c ****     * Return:
 903:.\Generated_Source\PSoC4/CyLib.c ****     *  Interrupt request value:
 904:.\Generated_Source\PSoC4/CyLib.c ****     *    CY_SYS_LVD_INT - Indicates an Low Voltage Detect interrupt
 905:.\Generated_Source\PSoC4/CyLib.c ****     *
 906:.\Generated_Source\PSoC4/CyLib.c ****     *******************************************************************************/
 907:.\Generated_Source\PSoC4/CyLib.c ****     uint32 CySysLvdGetInterruptSource(void)
 908:.\Generated_Source\PSoC4/CyLib.c ****     {
 217              		.loc 1 908 0
 218              		.cfi_startproc
 909:.\Generated_Source\PSoC4/CyLib.c ****         return (CY_LVD_PWR_INTR_REG & CY_SYS_LVD_INT);
 219              		.loc 1 909 0
 220 0000 024B     		ldr	r3, .L17
 910:.\Generated_Source\PSoC4/CyLib.c ****     }
 221              		.loc 1 910 0
ARM GAS  C:\Users\moxon\AppData\Local\Temp\ccM9MmHX.s 			page 21


 222              		@ sp needed
 909:.\Generated_Source\PSoC4/CyLib.c ****         return (CY_LVD_PWR_INTR_REG & CY_SYS_LVD_INT);
 223              		.loc 1 909 0
 224 0002 1868     		ldr	r0, [r3]
 225 0004 0223     		mov	r3, #2
 226 0006 1840     		and	r0, r3
 227              		.loc 1 910 0
 228 0008 7047     		bx	lr
 229              	.L18:
 230 000a C046     		.align	2
 231              	.L17:
 232 000c 04000B40 		.word	1074462724
 233              		.cfi_endproc
 234              	.LFE7:
 235              		.size	CySysLvdGetInterruptSource, .-CySysLvdGetInterruptSource
 236              		.section	.text.CySysLvdClearInterrupt,"ax",%progbits
 237              		.align	1
 238              		.global	CySysLvdClearInterrupt
 239              		.code	16
 240              		.thumb_func
 241              		.type	CySysLvdClearInterrupt, %function
 242              	CySysLvdClearInterrupt:
 243              	.LFB8:
 911:.\Generated_Source\PSoC4/CyLib.c **** 
 912:.\Generated_Source\PSoC4/CyLib.c **** 
 913:.\Generated_Source\PSoC4/CyLib.c ****     /*******************************************************************************
 914:.\Generated_Source\PSoC4/CyLib.c ****     * Function Name: CySysLvdClearInterrupt
 915:.\Generated_Source\PSoC4/CyLib.c ****     ********************************************************************************
 916:.\Generated_Source\PSoC4/CyLib.c ****     *
 917:.\Generated_Source\PSoC4/CyLib.c ****     * Summary:
 918:.\Generated_Source\PSoC4/CyLib.c ****     *  Clears the low voltage detection interrupt status.
 919:.\Generated_Source\PSoC4/CyLib.c ****     *
 920:.\Generated_Source\PSoC4/CyLib.c ****     * Parameters:
 921:.\Generated_Source\PSoC4/CyLib.c ****     *  None
 922:.\Generated_Source\PSoC4/CyLib.c ****     *
 923:.\Generated_Source\PSoC4/CyLib.c ****     * Return:
 924:.\Generated_Source\PSoC4/CyLib.c ****     *  None
 925:.\Generated_Source\PSoC4/CyLib.c ****     *
 926:.\Generated_Source\PSoC4/CyLib.c ****     *******************************************************************************/
 927:.\Generated_Source\PSoC4/CyLib.c ****     void CySysLvdClearInterrupt(void)
 928:.\Generated_Source\PSoC4/CyLib.c ****     {
 244              		.loc 1 928 0
 245              		.cfi_startproc
 929:.\Generated_Source\PSoC4/CyLib.c ****         CY_LVD_PWR_INTR_REG = CY_SYS_LVD_INT;
 246              		.loc 1 929 0
 247 0000 014B     		ldr	r3, .L20
 248 0002 0222     		mov	r2, #2
 249 0004 1A60     		str	r2, [r3]
 930:.\Generated_Source\PSoC4/CyLib.c ****     }
 250              		.loc 1 930 0
 251              		@ sp needed
 252 0006 7047     		bx	lr
 253              	.L21:
 254              		.align	2
 255              	.L20:
 256 0008 04000B40 		.word	1074462724
 257              		.cfi_endproc
ARM GAS  C:\Users\moxon\AppData\Local\Temp\ccM9MmHX.s 			page 22


 258              	.LFE8:
 259              		.size	CySysLvdClearInterrupt, .-CySysLvdClearInterrupt
 260              		.section	.text.CySysGetResetReason,"ax",%progbits
 261              		.align	1
 262              		.global	CySysGetResetReason
 263              		.code	16
 264              		.thumb_func
 265              		.type	CySysGetResetReason, %function
 266              	CySysGetResetReason:
 267              	.LFB9:
 931:.\Generated_Source\PSoC4/CyLib.c **** 
 932:.\Generated_Source\PSoC4/CyLib.c **** #endif /* (CY_IP_SRSSV2) */
 933:.\Generated_Source\PSoC4/CyLib.c **** 
 934:.\Generated_Source\PSoC4/CyLib.c **** 
 935:.\Generated_Source\PSoC4/CyLib.c **** /*******************************************************************************
 936:.\Generated_Source\PSoC4/CyLib.c **** * Function Name: CySysGetResetReason
 937:.\Generated_Source\PSoC4/CyLib.c **** ********************************************************************************
 938:.\Generated_Source\PSoC4/CyLib.c **** *
 939:.\Generated_Source\PSoC4/CyLib.c **** * Summary:
 940:.\Generated_Source\PSoC4/CyLib.c **** *  Reports the cause for the latest reset(s) that occurred in the system. All
 941:.\Generated_Source\PSoC4/CyLib.c **** *  the bits in the RES_CAUSE register assert when the corresponding reset cause
 942:.\Generated_Source\PSoC4/CyLib.c **** *  occurs and must be cleared by the firmware. These bits are cleared by the
 943:.\Generated_Source\PSoC4/CyLib.c **** *  hardware only during XRES, POR, or a detected brown-out.
 944:.\Generated_Source\PSoC4/CyLib.c **** *
 945:.\Generated_Source\PSoC4/CyLib.c **** * Parameters:
 946:.\Generated_Source\PSoC4/CyLib.c **** *  reason: bits in the RES_CAUSE register to clear.
 947:.\Generated_Source\PSoC4/CyLib.c **** *   CY_SYS_RESET_WDT       - WDT caused a reset
 948:.\Generated_Source\PSoC4/CyLib.c **** *   CY_SYS_RESET_PROTFAULT - Occured protection violation that requires reset
 949:.\Generated_Source\PSoC4/CyLib.c **** *   CY_SYS_RESET_SW        - Cortex-M0 requested a system reset.
 950:.\Generated_Source\PSoC4/CyLib.c **** *
 951:.\Generated_Source\PSoC4/CyLib.c **** * Return:
 952:.\Generated_Source\PSoC4/CyLib.c **** *  Status. Same enumerated bit values as used for the reason parameter.
 953:.\Generated_Source\PSoC4/CyLib.c **** *
 954:.\Generated_Source\PSoC4/CyLib.c **** *******************************************************************************/
 955:.\Generated_Source\PSoC4/CyLib.c **** uint32 CySysGetResetReason(uint32 reason)
 956:.\Generated_Source\PSoC4/CyLib.c **** {
 268              		.loc 1 956 0
 269              		.cfi_startproc
 270              	.LVL8:
 957:.\Generated_Source\PSoC4/CyLib.c ****     uint32 status;
 958:.\Generated_Source\PSoC4/CyLib.c **** 
 959:.\Generated_Source\PSoC4/CyLib.c ****     reason &= (CY_SYS_RESET_WDT | CY_SYS_RESET_PROTFAULT | CY_SYS_RESET_SW);
 960:.\Generated_Source\PSoC4/CyLib.c ****     status = CY_SYS_RES_CAUSE_REG &
 271              		.loc 1 960 0
 272 0000 034A     		ldr	r2, .L23
 959:.\Generated_Source\PSoC4/CyLib.c ****     reason &= (CY_SYS_RESET_WDT | CY_SYS_RESET_PROTFAULT | CY_SYS_RESET_SW);
 273              		.loc 1 959 0
 274 0002 1923     		mov	r3, #25
 275 0004 011C     		mov	r1, r0
 276              		.loc 1 960 0
 277 0006 1068     		ldr	r0, [r2]
 278              	.LVL9:
 959:.\Generated_Source\PSoC4/CyLib.c ****     reason &= (CY_SYS_RESET_WDT | CY_SYS_RESET_PROTFAULT | CY_SYS_RESET_SW);
 279              		.loc 1 959 0
 280 0008 1940     		and	r1, r3
 281              	.LVL10:
 282              		.loc 1 960 0
ARM GAS  C:\Users\moxon\AppData\Local\Temp\ccM9MmHX.s 			page 23


 283 000a 1840     		and	r0, r3
 284              	.LVL11:
 961:.\Generated_Source\PSoC4/CyLib.c ****              (CY_SYS_RESET_WDT | CY_SYS_RESET_PROTFAULT | CY_SYS_RESET_SW);
 962:.\Generated_Source\PSoC4/CyLib.c ****     CY_SYS_RES_CAUSE_REG = reason;
 285              		.loc 1 962 0
 286 000c 1160     		str	r1, [r2]
 963:.\Generated_Source\PSoC4/CyLib.c **** 
 964:.\Generated_Source\PSoC4/CyLib.c ****     return (status);
 965:.\Generated_Source\PSoC4/CyLib.c **** }
 287              		.loc 1 965 0
 288              		@ sp needed
 289 000e 7047     		bx	lr
 290              	.L24:
 291              		.align	2
 292              	.L23:
 293 0010 00030B40 		.word	1074463488
 294              		.cfi_endproc
 295              	.LFE9:
 296              		.size	CySysGetResetReason, .-CySysGetResetReason
 297              		.section	.text.CyDisableInts,"ax",%progbits
 298              		.align	1
 299              		.global	CyDisableInts
 300              		.code	16
 301              		.thumb_func
 302              		.type	CyDisableInts, %function
 303              	CyDisableInts:
 304              	.LFB10:
 966:.\Generated_Source\PSoC4/CyLib.c **** 
 967:.\Generated_Source\PSoC4/CyLib.c **** 
 968:.\Generated_Source\PSoC4/CyLib.c **** /*******************************************************************************
 969:.\Generated_Source\PSoC4/CyLib.c **** * Function Name: CyDisableInts
 970:.\Generated_Source\PSoC4/CyLib.c **** ********************************************************************************
 971:.\Generated_Source\PSoC4/CyLib.c **** *
 972:.\Generated_Source\PSoC4/CyLib.c **** * Summary:
 973:.\Generated_Source\PSoC4/CyLib.c **** *  Disables all interrupts.
 974:.\Generated_Source\PSoC4/CyLib.c **** *
 975:.\Generated_Source\PSoC4/CyLib.c **** * Parameters:
 976:.\Generated_Source\PSoC4/CyLib.c **** *  None
 977:.\Generated_Source\PSoC4/CyLib.c **** *
 978:.\Generated_Source\PSoC4/CyLib.c **** * Return:
 979:.\Generated_Source\PSoC4/CyLib.c **** *  32 bit mask of previously enabled interrupts.
 980:.\Generated_Source\PSoC4/CyLib.c **** *
 981:.\Generated_Source\PSoC4/CyLib.c **** *******************************************************************************/
 982:.\Generated_Source\PSoC4/CyLib.c **** uint32 CyDisableInts(void)
 983:.\Generated_Source\PSoC4/CyLib.c **** {
 305              		.loc 1 983 0
 306              		.cfi_startproc
 984:.\Generated_Source\PSoC4/CyLib.c ****     uint32 intState;
 985:.\Generated_Source\PSoC4/CyLib.c **** 
 986:.\Generated_Source\PSoC4/CyLib.c ****     /* Get current interrupt state. */
 987:.\Generated_Source\PSoC4/CyLib.c ****     intState = CY_INT_CLEAR_REG;
 307              		.loc 1 987 0
 308 0000 024B     		ldr	r3, .L26
 988:.\Generated_Source\PSoC4/CyLib.c **** 
 989:.\Generated_Source\PSoC4/CyLib.c ****     /* Disable all interrupts. */
 990:.\Generated_Source\PSoC4/CyLib.c ****     CY_INT_CLEAR_REG = CY_INT_CLEAR_DISABLE_ALL;
 309              		.loc 1 990 0
ARM GAS  C:\Users\moxon\AppData\Local\Temp\ccM9MmHX.s 			page 24


 310 0002 0122     		mov	r2, #1
 311 0004 5242     		neg	r2, r2
 987:.\Generated_Source\PSoC4/CyLib.c ****     intState = CY_INT_CLEAR_REG;
 312              		.loc 1 987 0
 313 0006 1868     		ldr	r0, [r3]
 314              	.LVL12:
 991:.\Generated_Source\PSoC4/CyLib.c **** 
 992:.\Generated_Source\PSoC4/CyLib.c ****     return (intState);
 993:.\Generated_Source\PSoC4/CyLib.c **** }
 315              		.loc 1 993 0
 316              		@ sp needed
 990:.\Generated_Source\PSoC4/CyLib.c ****     CY_INT_CLEAR_REG = CY_INT_CLEAR_DISABLE_ALL;
 317              		.loc 1 990 0
 318 0008 1A60     		str	r2, [r3]
 319              		.loc 1 993 0
 320 000a 7047     		bx	lr
 321              	.L27:
 322              		.align	2
 323              	.L26:
 324 000c 80E100E0 		.word	-536813184
 325              		.cfi_endproc
 326              	.LFE10:
 327              		.size	CyDisableInts, .-CyDisableInts
 328              		.section	.text.CyEnableInts,"ax",%progbits
 329              		.align	1
 330              		.global	CyEnableInts
 331              		.code	16
 332              		.thumb_func
 333              		.type	CyEnableInts, %function
 334              	CyEnableInts:
 335              	.LFB11:
 994:.\Generated_Source\PSoC4/CyLib.c **** 
 995:.\Generated_Source\PSoC4/CyLib.c **** 
 996:.\Generated_Source\PSoC4/CyLib.c **** /*******************************************************************************
 997:.\Generated_Source\PSoC4/CyLib.c **** * Function Name: CyEnableInts
 998:.\Generated_Source\PSoC4/CyLib.c **** ********************************************************************************
 999:.\Generated_Source\PSoC4/CyLib.c **** *
1000:.\Generated_Source\PSoC4/CyLib.c **** * Summary:
1001:.\Generated_Source\PSoC4/CyLib.c **** *  Enables interrupts to a given state.
1002:.\Generated_Source\PSoC4/CyLib.c **** *
1003:.\Generated_Source\PSoC4/CyLib.c **** * Parameters:
1004:.\Generated_Source\PSoC4/CyLib.c **** *   mask, 32 bit mask of interrupts to enable.
1005:.\Generated_Source\PSoC4/CyLib.c **** *
1006:.\Generated_Source\PSoC4/CyLib.c **** * Return:
1007:.\Generated_Source\PSoC4/CyLib.c **** *  None
1008:.\Generated_Source\PSoC4/CyLib.c **** *
1009:.\Generated_Source\PSoC4/CyLib.c **** *******************************************************************************/
1010:.\Generated_Source\PSoC4/CyLib.c **** void CyEnableInts(uint32 mask)
1011:.\Generated_Source\PSoC4/CyLib.c **** {
 336              		.loc 1 1011 0
 337              		.cfi_startproc
 338              	.LVL13:
1012:.\Generated_Source\PSoC4/CyLib.c ****     CY_INT_ENABLE_REG = mask;
 339              		.loc 1 1012 0
 340 0000 014B     		ldr	r3, .L29
1013:.\Generated_Source\PSoC4/CyLib.c **** }
 341              		.loc 1 1013 0
ARM GAS  C:\Users\moxon\AppData\Local\Temp\ccM9MmHX.s 			page 25


 342              		@ sp needed
1012:.\Generated_Source\PSoC4/CyLib.c ****     CY_INT_ENABLE_REG = mask;
 343              		.loc 1 1012 0
 344 0002 1860     		str	r0, [r3]
 345              		.loc 1 1013 0
 346 0004 7047     		bx	lr
 347              	.L30:
 348 0006 C046     		.align	2
 349              	.L29:
 350 0008 00E100E0 		.word	-536813312
 351              		.cfi_endproc
 352              	.LFE11:
 353              		.size	CyEnableInts, .-CyEnableInts
 354              		.section	.text.CyIntSetSysVector,"ax",%progbits
 355              		.align	1
 356              		.global	CyIntSetSysVector
 357              		.code	16
 358              		.thumb_func
 359              		.type	CyIntSetSysVector, %function
 360              	CyIntSetSysVector:
 361              	.LFB12:
1014:.\Generated_Source\PSoC4/CyLib.c **** 
1015:.\Generated_Source\PSoC4/CyLib.c **** 
1016:.\Generated_Source\PSoC4/CyLib.c **** /*******************************************************************************
1017:.\Generated_Source\PSoC4/CyLib.c **** * Function Name: CyIntSetSysVector
1018:.\Generated_Source\PSoC4/CyLib.c **** ********************************************************************************
1019:.\Generated_Source\PSoC4/CyLib.c **** *
1020:.\Generated_Source\PSoC4/CyLib.c **** * Summary:
1021:.\Generated_Source\PSoC4/CyLib.c **** *  Sets the interrupt vector of the specified system interrupt number. These
1022:.\Generated_Source\PSoC4/CyLib.c **** *  interrupts are for SysTick, PendSV and others.
1023:.\Generated_Source\PSoC4/CyLib.c **** *
1024:.\Generated_Source\PSoC4/CyLib.c **** * Parameters:
1025:.\Generated_Source\PSoC4/CyLib.c **** *  number: System interrupt number:
1026:.\Generated_Source\PSoC4/CyLib.c **** *    CY_INT_NMI_IRQN        - Non Maskable Interrupt
1027:.\Generated_Source\PSoC4/CyLib.c **** *    CY_INT_HARD_FAULT_IRQN - Hard Fault Interrupt
1028:.\Generated_Source\PSoC4/CyLib.c **** *    CY_INT_SVCALL_IRQN     - SV Call Interrupt
1029:.\Generated_Source\PSoC4/CyLib.c **** *    CY_INT_PEND_SV_IRQN    - Pend SV Interrupt
1030:.\Generated_Source\PSoC4/CyLib.c **** *    CY_INT_SYSTICK_IRQN    - System Tick Interrupt
1031:.\Generated_Source\PSoC4/CyLib.c **** *
1032:.\Generated_Source\PSoC4/CyLib.c **** *  address: Pointer to an interrupt service routine.
1033:.\Generated_Source\PSoC4/CyLib.c **** *
1034:.\Generated_Source\PSoC4/CyLib.c **** * Return:
1035:.\Generated_Source\PSoC4/CyLib.c **** *  The old ISR vector at this location.
1036:.\Generated_Source\PSoC4/CyLib.c **** *
1037:.\Generated_Source\PSoC4/CyLib.c **** *******************************************************************************/
1038:.\Generated_Source\PSoC4/CyLib.c **** cyisraddress CyIntSetSysVector(uint8 number, cyisraddress address)
1039:.\Generated_Source\PSoC4/CyLib.c **** {
 362              		.loc 1 1039 0
 363              		.cfi_startproc
 364              	.LVL14:
1040:.\Generated_Source\PSoC4/CyLib.c ****     cyisraddress oldIsr;
1041:.\Generated_Source\PSoC4/CyLib.c ****     cyisraddress *ramVectorTable = (cyisraddress *) CY_INT_VECT_TABLE;
1042:.\Generated_Source\PSoC4/CyLib.c **** 
1043:.\Generated_Source\PSoC4/CyLib.c ****     CYASSERT(number < CY_INT_IRQ_BASE);
 365              		.loc 1 1043 0
 366 0000 0F28     		cmp	r0, #15
 367 0002 00D9     		bls	.L32
ARM GAS  C:\Users\moxon\AppData\Local\Temp\ccM9MmHX.s 			page 26


 368              	.LVL15:
 369              	.LBB26:
 370              	.LBB27:
1044:.\Generated_Source\PSoC4/CyLib.c **** 
1045:.\Generated_Source\PSoC4/CyLib.c ****     /* Save old Interrupt service routine. */
1046:.\Generated_Source\PSoC4/CyLib.c ****     oldIsr = ramVectorTable[number];
1047:.\Generated_Source\PSoC4/CyLib.c **** 
1048:.\Generated_Source\PSoC4/CyLib.c ****     /* Set new Interrupt service routine. */
1049:.\Generated_Source\PSoC4/CyLib.c ****     ramVectorTable[number] = address;
1050:.\Generated_Source\PSoC4/CyLib.c **** 
1051:.\Generated_Source\PSoC4/CyLib.c ****     return(oldIsr);
1052:.\Generated_Source\PSoC4/CyLib.c **** }
1053:.\Generated_Source\PSoC4/CyLib.c **** 
1054:.\Generated_Source\PSoC4/CyLib.c **** 
1055:.\Generated_Source\PSoC4/CyLib.c **** /*******************************************************************************
1056:.\Generated_Source\PSoC4/CyLib.c **** * Function Name: CyIntGetSysVector
1057:.\Generated_Source\PSoC4/CyLib.c **** ********************************************************************************
1058:.\Generated_Source\PSoC4/CyLib.c **** *
1059:.\Generated_Source\PSoC4/CyLib.c **** * Summary:
1060:.\Generated_Source\PSoC4/CyLib.c **** *   Gets the interrupt vector of the specified system interrupt number. These
1061:.\Generated_Source\PSoC4/CyLib.c **** *   interrupts are for SysTick, PendSV and others.
1062:.\Generated_Source\PSoC4/CyLib.c **** *
1063:.\Generated_Source\PSoC4/CyLib.c **** * Parameters:
1064:.\Generated_Source\PSoC4/CyLib.c **** *  number: System interrupt number:
1065:.\Generated_Source\PSoC4/CyLib.c **** *    CY_INT_NMI_IRQN        - Non Maskable Interrupt
1066:.\Generated_Source\PSoC4/CyLib.c **** *    CY_INT_HARD_FAULT_IRQN - Hard Fault Interrupt
1067:.\Generated_Source\PSoC4/CyLib.c **** *    CY_INT_SVCALL_IRQN     - SV Call Interrupt
1068:.\Generated_Source\PSoC4/CyLib.c **** *    CY_INT_PEND_SV_IRQN    - Pend SV Interrupt
1069:.\Generated_Source\PSoC4/CyLib.c **** *    CY_INT_SYSTICK_IRQN    - System Tick Interrupt
1070:.\Generated_Source\PSoC4/CyLib.c **** *
1071:.\Generated_Source\PSoC4/CyLib.c **** * Return:
1072:.\Generated_Source\PSoC4/CyLib.c **** *   Address of the ISR in the interrupt vector table.
1073:.\Generated_Source\PSoC4/CyLib.c **** *
1074:.\Generated_Source\PSoC4/CyLib.c **** *******************************************************************************/
1075:.\Generated_Source\PSoC4/CyLib.c **** cyisraddress CyIntGetSysVector(uint8 number)
1076:.\Generated_Source\PSoC4/CyLib.c **** {
1077:.\Generated_Source\PSoC4/CyLib.c ****     cyisraddress *ramVectorTable = (cyisraddress *) CY_INT_VECT_TABLE;
1078:.\Generated_Source\PSoC4/CyLib.c **** 
1079:.\Generated_Source\PSoC4/CyLib.c ****     CYASSERT(number < CY_INT_IRQ_BASE);
1080:.\Generated_Source\PSoC4/CyLib.c **** 
1081:.\Generated_Source\PSoC4/CyLib.c ****     return(ramVectorTable[number]);
1082:.\Generated_Source\PSoC4/CyLib.c **** }
1083:.\Generated_Source\PSoC4/CyLib.c **** 
1084:.\Generated_Source\PSoC4/CyLib.c **** 
1085:.\Generated_Source\PSoC4/CyLib.c **** /*******************************************************************************
1086:.\Generated_Source\PSoC4/CyLib.c **** * Function Name: CyIntSetVector
1087:.\Generated_Source\PSoC4/CyLib.c **** ********************************************************************************
1088:.\Generated_Source\PSoC4/CyLib.c **** *
1089:.\Generated_Source\PSoC4/CyLib.c **** * Summary:
1090:.\Generated_Source\PSoC4/CyLib.c **** *  Sets the interrupt vector of the specified interrupt number.
1091:.\Generated_Source\PSoC4/CyLib.c **** *
1092:.\Generated_Source\PSoC4/CyLib.c **** * Parameters:
1093:.\Generated_Source\PSoC4/CyLib.c **** *  number: Valid range [0-31].  Interrupt number
1094:.\Generated_Source\PSoC4/CyLib.c **** *  address: Pointer to an interrupt service routine
1095:.\Generated_Source\PSoC4/CyLib.c **** *
1096:.\Generated_Source\PSoC4/CyLib.c **** * Return:
1097:.\Generated_Source\PSoC4/CyLib.c **** *   Previous interrupt vector value.
ARM GAS  C:\Users\moxon\AppData\Local\Temp\ccM9MmHX.s 			page 27


1098:.\Generated_Source\PSoC4/CyLib.c **** *
1099:.\Generated_Source\PSoC4/CyLib.c **** *******************************************************************************/
1100:.\Generated_Source\PSoC4/CyLib.c **** cyisraddress CyIntSetVector(uint8 number, cyisraddress address)
1101:.\Generated_Source\PSoC4/CyLib.c **** {
1102:.\Generated_Source\PSoC4/CyLib.c ****     cyisraddress oldIsr;
1103:.\Generated_Source\PSoC4/CyLib.c ****     cyisraddress *ramVectorTable = (cyisraddress *) CY_INT_VECT_TABLE;
1104:.\Generated_Source\PSoC4/CyLib.c **** 
1105:.\Generated_Source\PSoC4/CyLib.c ****     CYASSERT(number < CY_NUM_INTERRUPTS);
1106:.\Generated_Source\PSoC4/CyLib.c **** 
1107:.\Generated_Source\PSoC4/CyLib.c ****     /* Save old Interrupt service routine. */
1108:.\Generated_Source\PSoC4/CyLib.c ****     oldIsr = ramVectorTable[CY_INT_IRQ_BASE + number];
1109:.\Generated_Source\PSoC4/CyLib.c **** 
1110:.\Generated_Source\PSoC4/CyLib.c ****     /* Set new Interrupt service routine. */
1111:.\Generated_Source\PSoC4/CyLib.c ****     ramVectorTable[CY_INT_IRQ_BASE + number] = address;
1112:.\Generated_Source\PSoC4/CyLib.c **** 
1113:.\Generated_Source\PSoC4/CyLib.c ****     return(oldIsr);
1114:.\Generated_Source\PSoC4/CyLib.c **** }
1115:.\Generated_Source\PSoC4/CyLib.c **** 
1116:.\Generated_Source\PSoC4/CyLib.c **** 
1117:.\Generated_Source\PSoC4/CyLib.c **** /*******************************************************************************
1118:.\Generated_Source\PSoC4/CyLib.c **** * Function Name: CyIntGetVector
1119:.\Generated_Source\PSoC4/CyLib.c **** ********************************************************************************
1120:.\Generated_Source\PSoC4/CyLib.c **** *
1121:.\Generated_Source\PSoC4/CyLib.c **** * Summary:
1122:.\Generated_Source\PSoC4/CyLib.c **** *  Gets the interrupt vector of the specified interrupt number.
1123:.\Generated_Source\PSoC4/CyLib.c **** *
1124:.\Generated_Source\PSoC4/CyLib.c **** * Parameters:
1125:.\Generated_Source\PSoC4/CyLib.c **** *  number: Valid range [0-31].  Interrupt number
1126:.\Generated_Source\PSoC4/CyLib.c **** *
1127:.\Generated_Source\PSoC4/CyLib.c **** * Return:
1128:.\Generated_Source\PSoC4/CyLib.c **** *  Address of the ISR in the interrupt vector table.
1129:.\Generated_Source\PSoC4/CyLib.c **** *
1130:.\Generated_Source\PSoC4/CyLib.c **** *******************************************************************************/
1131:.\Generated_Source\PSoC4/CyLib.c **** cyisraddress CyIntGetVector(uint8 number)
1132:.\Generated_Source\PSoC4/CyLib.c **** {
1133:.\Generated_Source\PSoC4/CyLib.c ****     cyisraddress *ramVectorTable = (cyisraddress *) CY_INT_VECT_TABLE;
1134:.\Generated_Source\PSoC4/CyLib.c **** 
1135:.\Generated_Source\PSoC4/CyLib.c ****     CYASSERT(number < CY_NUM_INTERRUPTS);
1136:.\Generated_Source\PSoC4/CyLib.c **** 
1137:.\Generated_Source\PSoC4/CyLib.c ****     return (ramVectorTable[CY_INT_IRQ_BASE + number]);
1138:.\Generated_Source\PSoC4/CyLib.c **** }
1139:.\Generated_Source\PSoC4/CyLib.c **** 
1140:.\Generated_Source\PSoC4/CyLib.c **** /*******************************************************************************
1141:.\Generated_Source\PSoC4/CyLib.c **** * Function Name: CyIntSetPriority
1142:.\Generated_Source\PSoC4/CyLib.c **** ********************************************************************************
1143:.\Generated_Source\PSoC4/CyLib.c **** *
1144:.\Generated_Source\PSoC4/CyLib.c **** * Summary:
1145:.\Generated_Source\PSoC4/CyLib.c **** *  Sets the priority of the interrupt.
1146:.\Generated_Source\PSoC4/CyLib.c **** *
1147:.\Generated_Source\PSoC4/CyLib.c **** * Parameters:
1148:.\Generated_Source\PSoC4/CyLib.c **** *  priority: Priority of the interrupt. 0 - 3, 0 being the highest.
1149:.\Generated_Source\PSoC4/CyLib.c **** *  number: The number of the interrupt, 0 - 31.
1150:.\Generated_Source\PSoC4/CyLib.c **** *
1151:.\Generated_Source\PSoC4/CyLib.c **** * Return:
1152:.\Generated_Source\PSoC4/CyLib.c **** *  None
1153:.\Generated_Source\PSoC4/CyLib.c **** *
1154:.\Generated_Source\PSoC4/CyLib.c **** *******************************************************************************/
ARM GAS  C:\Users\moxon\AppData\Local\Temp\ccM9MmHX.s 			page 28


1155:.\Generated_Source\PSoC4/CyLib.c **** void CyIntSetPriority(uint8 number, uint8 priority)
1156:.\Generated_Source\PSoC4/CyLib.c **** {
1157:.\Generated_Source\PSoC4/CyLib.c ****     uint8 interruptState;
1158:.\Generated_Source\PSoC4/CyLib.c ****     uint32 shift;
1159:.\Generated_Source\PSoC4/CyLib.c ****     uint32 value;
1160:.\Generated_Source\PSoC4/CyLib.c **** 
1161:.\Generated_Source\PSoC4/CyLib.c ****     CYASSERT(priority <= CY_MIN_PRIORITY);
1162:.\Generated_Source\PSoC4/CyLib.c ****     CYASSERT(number < CY_NUM_INTERRUPTS);
1163:.\Generated_Source\PSoC4/CyLib.c **** 
1164:.\Generated_Source\PSoC4/CyLib.c ****     shift = CY_INT_PRIORITY_SHIFT(number);
1165:.\Generated_Source\PSoC4/CyLib.c **** 
1166:.\Generated_Source\PSoC4/CyLib.c ****     interruptState = CyEnterCriticalSection();
1167:.\Generated_Source\PSoC4/CyLib.c **** 
1168:.\Generated_Source\PSoC4/CyLib.c ****     value = CY_INT_PRIORITY_REG(number);
1169:.\Generated_Source\PSoC4/CyLib.c ****     value &= (uint32)(~((uint32)(CY_INT_PRIORITY_MASK << shift)));
1170:.\Generated_Source\PSoC4/CyLib.c ****     value |= ((uint32)priority << shift);
1171:.\Generated_Source\PSoC4/CyLib.c ****     CY_INT_PRIORITY_REG(number) = value;
1172:.\Generated_Source\PSoC4/CyLib.c **** 
1173:.\Generated_Source\PSoC4/CyLib.c ****     CyExitCriticalSection(interruptState);
1174:.\Generated_Source\PSoC4/CyLib.c **** }
1175:.\Generated_Source\PSoC4/CyLib.c **** 
1176:.\Generated_Source\PSoC4/CyLib.c **** 
1177:.\Generated_Source\PSoC4/CyLib.c **** /*******************************************************************************
1178:.\Generated_Source\PSoC4/CyLib.c **** * Function Name: CyIntGetPriority
1179:.\Generated_Source\PSoC4/CyLib.c **** ********************************************************************************
1180:.\Generated_Source\PSoC4/CyLib.c **** *
1181:.\Generated_Source\PSoC4/CyLib.c **** * Summary:
1182:.\Generated_Source\PSoC4/CyLib.c **** *  Gets the priority of the interrupt.
1183:.\Generated_Source\PSoC4/CyLib.c **** *
1184:.\Generated_Source\PSoC4/CyLib.c **** * Parameters:
1185:.\Generated_Source\PSoC4/CyLib.c **** *  number: The number of the interrupt, 0 - 31.
1186:.\Generated_Source\PSoC4/CyLib.c **** *
1187:.\Generated_Source\PSoC4/CyLib.c **** * Return:
1188:.\Generated_Source\PSoC4/CyLib.c **** *  Priority of the interrupt. 0 - 3, 0 being the highest.
1189:.\Generated_Source\PSoC4/CyLib.c **** *
1190:.\Generated_Source\PSoC4/CyLib.c **** *******************************************************************************/
1191:.\Generated_Source\PSoC4/CyLib.c **** uint8 CyIntGetPriority(uint8 number)
1192:.\Generated_Source\PSoC4/CyLib.c **** {
1193:.\Generated_Source\PSoC4/CyLib.c ****     uint8 priority;
1194:.\Generated_Source\PSoC4/CyLib.c **** 
1195:.\Generated_Source\PSoC4/CyLib.c ****     CYASSERT(number < CY_NUM_INTERRUPTS);
1196:.\Generated_Source\PSoC4/CyLib.c **** 
1197:.\Generated_Source\PSoC4/CyLib.c ****     priority = (uint8) (CY_INT_PRIORITY_REG(number) >> CY_INT_PRIORITY_SHIFT(number));
1198:.\Generated_Source\PSoC4/CyLib.c **** 
1199:.\Generated_Source\PSoC4/CyLib.c ****     return (priority & (uint8) CY_INT_PRIORITY_MASK);
1200:.\Generated_Source\PSoC4/CyLib.c **** }
1201:.\Generated_Source\PSoC4/CyLib.c **** 
1202:.\Generated_Source\PSoC4/CyLib.c **** 
1203:.\Generated_Source\PSoC4/CyLib.c **** /*******************************************************************************
1204:.\Generated_Source\PSoC4/CyLib.c **** * Function Name: CyIntEnable
1205:.\Generated_Source\PSoC4/CyLib.c **** ********************************************************************************
1206:.\Generated_Source\PSoC4/CyLib.c **** *
1207:.\Generated_Source\PSoC4/CyLib.c **** * Summary:
1208:.\Generated_Source\PSoC4/CyLib.c **** *  Enables the specified interrupt number.
1209:.\Generated_Source\PSoC4/CyLib.c **** *
1210:.\Generated_Source\PSoC4/CyLib.c **** * Parameters:
1211:.\Generated_Source\PSoC4/CyLib.c **** *  number: Valid range [0-31].  Interrupt number
ARM GAS  C:\Users\moxon\AppData\Local\Temp\ccM9MmHX.s 			page 29


1212:.\Generated_Source\PSoC4/CyLib.c **** *
1213:.\Generated_Source\PSoC4/CyLib.c **** * Return:
1214:.\Generated_Source\PSoC4/CyLib.c **** *  None
1215:.\Generated_Source\PSoC4/CyLib.c **** *
1216:.\Generated_Source\PSoC4/CyLib.c **** *******************************************************************************/
1217:.\Generated_Source\PSoC4/CyLib.c **** void CyIntEnable(uint8 number)
1218:.\Generated_Source\PSoC4/CyLib.c **** {
1219:.\Generated_Source\PSoC4/CyLib.c ****     CY_INT_ENABLE_REG = ((uint32) 0x01u << (CY_INT_ENABLE_RANGE_MASK & number));
1220:.\Generated_Source\PSoC4/CyLib.c **** }
1221:.\Generated_Source\PSoC4/CyLib.c **** 
1222:.\Generated_Source\PSoC4/CyLib.c **** 
1223:.\Generated_Source\PSoC4/CyLib.c **** /*******************************************************************************
1224:.\Generated_Source\PSoC4/CyLib.c **** * Function Name: CyIntGetState
1225:.\Generated_Source\PSoC4/CyLib.c **** ********************************************************************************
1226:.\Generated_Source\PSoC4/CyLib.c **** *
1227:.\Generated_Source\PSoC4/CyLib.c **** * Summary:
1228:.\Generated_Source\PSoC4/CyLib.c **** *  Gets the enable state of the specified interrupt number.
1229:.\Generated_Source\PSoC4/CyLib.c **** *
1230:.\Generated_Source\PSoC4/CyLib.c **** * Parameters:
1231:.\Generated_Source\PSoC4/CyLib.c **** *  number: Valid range [0-31].  Interrupt number.
1232:.\Generated_Source\PSoC4/CyLib.c **** *
1233:.\Generated_Source\PSoC4/CyLib.c **** * Return:
1234:.\Generated_Source\PSoC4/CyLib.c **** *  Enable status: 1 if enabled, 0 if disabled
1235:.\Generated_Source\PSoC4/CyLib.c **** *
1236:.\Generated_Source\PSoC4/CyLib.c **** *******************************************************************************/
1237:.\Generated_Source\PSoC4/CyLib.c **** uint8 CyIntGetState(uint8 number)
1238:.\Generated_Source\PSoC4/CyLib.c **** {
1239:.\Generated_Source\PSoC4/CyLib.c ****     /* Get state of interrupt. */
1240:.\Generated_Source\PSoC4/CyLib.c ****     return ((0u != (CY_INT_ENABLE_REG & ((uint32) 0x01u << (CY_INT_ENABLE_RANGE_MASK & number)))) ?
1241:.\Generated_Source\PSoC4/CyLib.c **** }
1242:.\Generated_Source\PSoC4/CyLib.c **** 
1243:.\Generated_Source\PSoC4/CyLib.c **** 
1244:.\Generated_Source\PSoC4/CyLib.c **** /*******************************************************************************
1245:.\Generated_Source\PSoC4/CyLib.c **** * Function Name: CyIntDisable
1246:.\Generated_Source\PSoC4/CyLib.c **** ********************************************************************************
1247:.\Generated_Source\PSoC4/CyLib.c **** *
1248:.\Generated_Source\PSoC4/CyLib.c **** * Summary:
1249:.\Generated_Source\PSoC4/CyLib.c **** *   Disables the specified interrupt number.
1250:.\Generated_Source\PSoC4/CyLib.c **** *
1251:.\Generated_Source\PSoC4/CyLib.c **** * Parameters:
1252:.\Generated_Source\PSoC4/CyLib.c **** *   number: Valid range [0-31].  Interrupt number.
1253:.\Generated_Source\PSoC4/CyLib.c **** *
1254:.\Generated_Source\PSoC4/CyLib.c **** * Return:
1255:.\Generated_Source\PSoC4/CyLib.c **** *  None
1256:.\Generated_Source\PSoC4/CyLib.c **** *
1257:.\Generated_Source\PSoC4/CyLib.c **** *******************************************************************************/
1258:.\Generated_Source\PSoC4/CyLib.c **** void CyIntDisable(uint8 number)
1259:.\Generated_Source\PSoC4/CyLib.c **** {
1260:.\Generated_Source\PSoC4/CyLib.c ****     CY_INT_CLEAR_REG = ((uint32) 0x01u << (CY_INT_ENABLE_RANGE_MASK & number));
1261:.\Generated_Source\PSoC4/CyLib.c **** }
1262:.\Generated_Source\PSoC4/CyLib.c **** 
1263:.\Generated_Source\PSoC4/CyLib.c **** /*******************************************************************************
1264:.\Generated_Source\PSoC4/CyLib.c **** * Function Name: CyIntSetPending
1265:.\Generated_Source\PSoC4/CyLib.c **** ********************************************************************************
1266:.\Generated_Source\PSoC4/CyLib.c **** *
1267:.\Generated_Source\PSoC4/CyLib.c **** * Summary:
1268:.\Generated_Source\PSoC4/CyLib.c **** *  Forces the specified interrupt number to be pending.
ARM GAS  C:\Users\moxon\AppData\Local\Temp\ccM9MmHX.s 			page 30


1269:.\Generated_Source\PSoC4/CyLib.c **** *
1270:.\Generated_Source\PSoC4/CyLib.c **** * Parameters:
1271:.\Generated_Source\PSoC4/CyLib.c **** *  number: Valid range [0-31].  Interrupt number.
1272:.\Generated_Source\PSoC4/CyLib.c **** *
1273:.\Generated_Source\PSoC4/CyLib.c **** * Return:
1274:.\Generated_Source\PSoC4/CyLib.c **** *  None
1275:.\Generated_Source\PSoC4/CyLib.c **** *
1276:.\Generated_Source\PSoC4/CyLib.c **** *******************************************************************************/
1277:.\Generated_Source\PSoC4/CyLib.c **** void CyIntSetPending(uint8 number)
1278:.\Generated_Source\PSoC4/CyLib.c **** {
1279:.\Generated_Source\PSoC4/CyLib.c ****     CY_INT_SET_PEND_REG = ((uint32) 0x01u << (CY_INT_ENABLE_RANGE_MASK & number));
1280:.\Generated_Source\PSoC4/CyLib.c **** }
1281:.\Generated_Source\PSoC4/CyLib.c **** 
1282:.\Generated_Source\PSoC4/CyLib.c **** 
1283:.\Generated_Source\PSoC4/CyLib.c **** /*******************************************************************************
1284:.\Generated_Source\PSoC4/CyLib.c **** * Function Name: CyIntClearPending
1285:.\Generated_Source\PSoC4/CyLib.c **** ********************************************************************************
1286:.\Generated_Source\PSoC4/CyLib.c **** *
1287:.\Generated_Source\PSoC4/CyLib.c **** * Summary:
1288:.\Generated_Source\PSoC4/CyLib.c **** *  Clears any pending interrupt for the specified interrupt number.
1289:.\Generated_Source\PSoC4/CyLib.c **** *
1290:.\Generated_Source\PSoC4/CyLib.c **** * Parameters:
1291:.\Generated_Source\PSoC4/CyLib.c **** *  number: Valid range [0-31].  Interrupt number.
1292:.\Generated_Source\PSoC4/CyLib.c **** *
1293:.\Generated_Source\PSoC4/CyLib.c **** * Return:
1294:.\Generated_Source\PSoC4/CyLib.c **** *  None
1295:.\Generated_Source\PSoC4/CyLib.c **** *
1296:.\Generated_Source\PSoC4/CyLib.c **** *******************************************************************************/
1297:.\Generated_Source\PSoC4/CyLib.c **** void CyIntClearPending(uint8 number)
1298:.\Generated_Source\PSoC4/CyLib.c **** {
1299:.\Generated_Source\PSoC4/CyLib.c ****     CY_INT_CLR_PEND_REG = ((uint32) 0x01u << (CY_INT_ENABLE_RANGE_MASK & number));
1300:.\Generated_Source\PSoC4/CyLib.c **** }
1301:.\Generated_Source\PSoC4/CyLib.c **** 
1302:.\Generated_Source\PSoC4/CyLib.c **** 
1303:.\Generated_Source\PSoC4/CyLib.c **** /*******************************************************************************
1304:.\Generated_Source\PSoC4/CyLib.c **** * Function Name: CyHalt
1305:.\Generated_Source\PSoC4/CyLib.c **** ********************************************************************************
1306:.\Generated_Source\PSoC4/CyLib.c **** *
1307:.\Generated_Source\PSoC4/CyLib.c **** * Summary:
1308:.\Generated_Source\PSoC4/CyLib.c **** *  Halts the CPU.
1309:.\Generated_Source\PSoC4/CyLib.c **** *
1310:.\Generated_Source\PSoC4/CyLib.c **** * Parameters:
1311:.\Generated_Source\PSoC4/CyLib.c **** *  reason: Value to be used during debugging.
1312:.\Generated_Source\PSoC4/CyLib.c **** *
1313:.\Generated_Source\PSoC4/CyLib.c **** * Return:
1314:.\Generated_Source\PSoC4/CyLib.c **** *  None
1315:.\Generated_Source\PSoC4/CyLib.c **** *
1316:.\Generated_Source\PSoC4/CyLib.c **** *******************************************************************************/
1317:.\Generated_Source\PSoC4/CyLib.c **** void CyHalt(uint8 reason)
1318:.\Generated_Source\PSoC4/CyLib.c **** {
1319:.\Generated_Source\PSoC4/CyLib.c ****     if(0u != reason)
1320:.\Generated_Source\PSoC4/CyLib.c ****     {
1321:.\Generated_Source\PSoC4/CyLib.c ****         /* To remove unreferenced local variable warning */
1322:.\Generated_Source\PSoC4/CyLib.c ****     }
1323:.\Generated_Source\PSoC4/CyLib.c **** 
1324:.\Generated_Source\PSoC4/CyLib.c ****     #if defined (__ARMCC_VERSION)
1325:.\Generated_Source\PSoC4/CyLib.c ****         __breakpoint(0x0);
ARM GAS  C:\Users\moxon\AppData\Local\Temp\ccM9MmHX.s 			page 31


1326:.\Generated_Source\PSoC4/CyLib.c ****     #elif defined(__GNUC__) || defined (__ICCARM__)
1327:.\Generated_Source\PSoC4/CyLib.c ****         __asm("    bkpt    1");
 371              		.loc 1 1327 0
 372              	@ 1327 ".\Generated_Source\PSoC4\CyLib.c" 1
 373 0004 01BE     		    bkpt    1
 374              	@ 0 "" 2
 375              	.LVL16:
 376              		.code	16
 377              	.L32:
 378              	.LBE27:
 379              	.LBE26:
1046:.\Generated_Source\PSoC4/CyLib.c ****     oldIsr = ramVectorTable[number];
 380              		.loc 1 1046 0
 381 0006 8022     		mov	r2, #128
 382 0008 8000     		lsl	r0, r0, #2
 383              	.LVL17:
 384 000a 9205     		lsl	r2, r2, #22
 385 000c 8318     		add	r3, r0, r2
 386 000e 1868     		ldr	r0, [r3]
 387              	.LVL18:
1052:.\Generated_Source\PSoC4/CyLib.c **** }
 388              		.loc 1 1052 0
 389              		@ sp needed
1049:.\Generated_Source\PSoC4/CyLib.c ****     ramVectorTable[number] = address;
 390              		.loc 1 1049 0
 391 0010 1960     		str	r1, [r3]
1052:.\Generated_Source\PSoC4/CyLib.c **** }
 392              		.loc 1 1052 0
 393 0012 7047     		bx	lr
 394              		.cfi_endproc
 395              	.LFE12:
 396              		.size	CyIntSetSysVector, .-CyIntSetSysVector
 397              		.section	.text.CyIntGetSysVector,"ax",%progbits
 398              		.align	1
 399              		.global	CyIntGetSysVector
 400              		.code	16
 401              		.thumb_func
 402              		.type	CyIntGetSysVector, %function
 403              	CyIntGetSysVector:
 404              	.LFB13:
1076:.\Generated_Source\PSoC4/CyLib.c **** {
 405              		.loc 1 1076 0
 406              		.cfi_startproc
 407              	.LVL19:
1079:.\Generated_Source\PSoC4/CyLib.c ****     CYASSERT(number < CY_INT_IRQ_BASE);
 408              		.loc 1 1079 0
 409 0000 0F28     		cmp	r0, #15
 410 0002 00D9     		bls	.L35
 411              	.LVL20:
 412              	.LBB28:
 413              	.LBB29:
 414              		.loc 1 1327 0
 415              	@ 1327 ".\Generated_Source\PSoC4\CyLib.c" 1
 416 0004 01BE     		    bkpt    1
 417              	@ 0 "" 2
 418              	.LVL21:
 419              		.code	16
ARM GAS  C:\Users\moxon\AppData\Local\Temp\ccM9MmHX.s 			page 32


 420              	.L35:
 421              	.LBE29:
 422              	.LBE28:
1081:.\Generated_Source\PSoC4/CyLib.c ****     return(ramVectorTable[number]);
 423              		.loc 1 1081 0
 424 0006 8023     		mov	r3, #128
 425 0008 9B05     		lsl	r3, r3, #22
 426 000a 8000     		lsl	r0, r0, #2
 427              	.LVL22:
 428 000c C018     		add	r0, r0, r3
 429 000e 0068     		ldr	r0, [r0]
1082:.\Generated_Source\PSoC4/CyLib.c **** }
 430              		.loc 1 1082 0
 431              		@ sp needed
 432 0010 7047     		bx	lr
 433              		.cfi_endproc
 434              	.LFE13:
 435              		.size	CyIntGetSysVector, .-CyIntGetSysVector
 436              		.section	.text.CyIntSetVector,"ax",%progbits
 437              		.align	1
 438              		.global	CyIntSetVector
 439              		.code	16
 440              		.thumb_func
 441              		.type	CyIntSetVector, %function
 442              	CyIntSetVector:
 443              	.LFB14:
1101:.\Generated_Source\PSoC4/CyLib.c **** {
 444              		.loc 1 1101 0
 445              		.cfi_startproc
 446              	.LVL23:
1105:.\Generated_Source\PSoC4/CyLib.c ****     CYASSERT(number < CY_NUM_INTERRUPTS);
 447              		.loc 1 1105 0
 448 0000 1F28     		cmp	r0, #31
 449 0002 00D9     		bls	.L37
 450              	.LVL24:
 451              	.LBB30:
 452              	.LBB31:
 453              		.loc 1 1327 0
 454              	@ 1327 ".\Generated_Source\PSoC4\CyLib.c" 1
 455 0004 01BE     		    bkpt    1
 456              	@ 0 "" 2
 457              	.LVL25:
 458              		.code	16
 459              	.L37:
 460              	.LBE31:
 461              	.LBE30:
1108:.\Generated_Source\PSoC4/CyLib.c ****     oldIsr = ramVectorTable[CY_INT_IRQ_BASE + number];
 462              		.loc 1 1108 0
 463 0006 034A     		ldr	r2, .L38
 464 0008 8000     		lsl	r0, r0, #2
 465              	.LVL26:
 466 000a 8318     		add	r3, r0, r2
 467 000c 1868     		ldr	r0, [r3]
 468              	.LVL27:
1114:.\Generated_Source\PSoC4/CyLib.c **** }
 469              		.loc 1 1114 0
 470              		@ sp needed
ARM GAS  C:\Users\moxon\AppData\Local\Temp\ccM9MmHX.s 			page 33


1111:.\Generated_Source\PSoC4/CyLib.c ****     ramVectorTable[CY_INT_IRQ_BASE + number] = address;
 471              		.loc 1 1111 0
 472 000e 1960     		str	r1, [r3]
1114:.\Generated_Source\PSoC4/CyLib.c **** }
 473              		.loc 1 1114 0
 474 0010 7047     		bx	lr
 475              	.L39:
 476 0012 C046     		.align	2
 477              	.L38:
 478 0014 40000020 		.word	536870976
 479              		.cfi_endproc
 480              	.LFE14:
 481              		.size	CyIntSetVector, .-CyIntSetVector
 482              		.section	.text.CyIntGetVector,"ax",%progbits
 483              		.align	1
 484              		.global	CyIntGetVector
 485              		.code	16
 486              		.thumb_func
 487              		.type	CyIntGetVector, %function
 488              	CyIntGetVector:
 489              	.LFB15:
1132:.\Generated_Source\PSoC4/CyLib.c **** {
 490              		.loc 1 1132 0
 491              		.cfi_startproc
 492              	.LVL28:
1135:.\Generated_Source\PSoC4/CyLib.c ****     CYASSERT(number < CY_NUM_INTERRUPTS);
 493              		.loc 1 1135 0
 494 0000 1F28     		cmp	r0, #31
 495 0002 00D9     		bls	.L41
 496              	.LVL29:
 497              	.LBB32:
 498              	.LBB33:
 499              		.loc 1 1327 0
 500              	@ 1327 ".\Generated_Source\PSoC4\CyLib.c" 1
 501 0004 01BE     		    bkpt    1
 502              	@ 0 "" 2
 503              	.LVL30:
 504              		.code	16
 505              	.L41:
 506              	.LBE33:
 507              	.LBE32:
1137:.\Generated_Source\PSoC4/CyLib.c ****     return (ramVectorTable[CY_INT_IRQ_BASE + number]);
 508              		.loc 1 1137 0
 509 0006 024B     		ldr	r3, .L42
 510 0008 8000     		lsl	r0, r0, #2
 511              	.LVL31:
 512 000a C018     		add	r0, r0, r3
 513 000c 0068     		ldr	r0, [r0]
1138:.\Generated_Source\PSoC4/CyLib.c **** }
 514              		.loc 1 1138 0
 515              		@ sp needed
 516 000e 7047     		bx	lr
 517              	.L43:
 518              		.align	2
 519              	.L42:
 520 0010 40000020 		.word	536870976
 521              		.cfi_endproc
ARM GAS  C:\Users\moxon\AppData\Local\Temp\ccM9MmHX.s 			page 34


 522              	.LFE15:
 523              		.size	CyIntGetVector, .-CyIntGetVector
 524              		.section	.text.CyIntSetPriority,"ax",%progbits
 525              		.align	1
 526              		.global	CyIntSetPriority
 527              		.code	16
 528              		.thumb_func
 529              		.type	CyIntSetPriority, %function
 530              	CyIntSetPriority:
 531              	.LFB16:
1156:.\Generated_Source\PSoC4/CyLib.c **** {
 532              		.loc 1 1156 0
 533              		.cfi_startproc
 534              	.LVL32:
 535 0000 38B5     		push	{r3, r4, r5, lr}
 536              		.cfi_def_cfa_offset 16
 537              		.cfi_offset 3, -16
 538              		.cfi_offset 4, -12
 539              		.cfi_offset 5, -8
 540              		.cfi_offset 14, -4
1156:.\Generated_Source\PSoC4/CyLib.c **** {
 541              		.loc 1 1156 0
 542 0002 041C     		mov	r4, r0
 543 0004 0D1E     		sub	r5, r1, #0
1161:.\Generated_Source\PSoC4/CyLib.c ****     CYASSERT(priority <= CY_MIN_PRIORITY);
 544              		.loc 1 1161 0
 545 0006 032D     		cmp	r5, #3
 546 0008 00D9     		bls	.L45
 547              	.LVL33:
 548              	.LBB34:
 549              	.LBB35:
 550              		.loc 1 1327 0
 551              	@ 1327 ".\Generated_Source\PSoC4\CyLib.c" 1
 552 000a 01BE     		    bkpt    1
 553              	@ 0 "" 2
 554              	.LVL34:
 555              		.code	16
 556              	.L45:
 557              	.LBE35:
 558              	.LBE34:
1162:.\Generated_Source\PSoC4/CyLib.c ****     CYASSERT(number < CY_NUM_INTERRUPTS);
 559              		.loc 1 1162 0
 560 000c 1F2C     		cmp	r4, #31
 561 000e 00D9     		bls	.L46
 562              	.LVL35:
 563              	.LBB36:
 564              	.LBB37:
 565              		.loc 1 1327 0
 566              	@ 1327 ".\Generated_Source\PSoC4\CyLib.c" 1
 567 0010 01BE     		    bkpt    1
 568              	@ 0 "" 2
 569              	.LVL36:
 570              		.code	16
 571              	.L46:
 572              	.LBE37:
 573              	.LBE36:
1166:.\Generated_Source\PSoC4/CyLib.c ****     interruptState = CyEnterCriticalSection();
ARM GAS  C:\Users\moxon\AppData\Local\Temp\ccM9MmHX.s 			page 35


 574              		.loc 1 1166 0
 575 0012 FFF7FEFF 		bl	CyEnterCriticalSection
 576              	.LVL37:
1168:.\Generated_Source\PSoC4/CyLib.c ****     value = CY_INT_PRIORITY_REG(number);
 577              		.loc 1 1168 0
 578 0016 A308     		lsr	r3, r4, #2
 579 0018 084A     		ldr	r2, .L47
 580 001a 9B00     		lsl	r3, r3, #2
 581 001c 9B18     		add	r3, r3, r2
1164:.\Generated_Source\PSoC4/CyLib.c ****     shift = CY_INT_PRIORITY_SHIFT(number);
 582              		.loc 1 1164 0
 583 001e 0322     		mov	r2, #3
 584 0020 1440     		and	r4, r2
 585              	.LVL38:
 586 0022 9440     		lsl	r4, r4, r2
1168:.\Generated_Source\PSoC4/CyLib.c ****     value = CY_INT_PRIORITY_REG(number);
 587              		.loc 1 1168 0
 588 0024 1968     		ldr	r1, [r3]
 589              	.LVL39:
1164:.\Generated_Source\PSoC4/CyLib.c ****     shift = CY_INT_PRIORITY_SHIFT(number);
 590              		.loc 1 1164 0
 591 0026 0634     		add	r4, r4, #6
1169:.\Generated_Source\PSoC4/CyLib.c ****     value &= (uint32)(~((uint32)(CY_INT_PRIORITY_MASK << shift)));
 592              		.loc 1 1169 0
 593 0028 A240     		lsl	r2, r2, r4
 594 002a 9143     		bic	r1, r2
 595              	.LVL40:
1170:.\Generated_Source\PSoC4/CyLib.c ****     value |= ((uint32)priority << shift);
 596              		.loc 1 1170 0
 597 002c A540     		lsl	r5, r5, r4
 598 002e 0C1C     		mov	r4, r1
 599 0030 2C43     		orr	r4, r5
 600              	.LVL41:
1171:.\Generated_Source\PSoC4/CyLib.c ****     CY_INT_PRIORITY_REG(number) = value;
 601              		.loc 1 1171 0
 602 0032 1C60     		str	r4, [r3]
1173:.\Generated_Source\PSoC4/CyLib.c ****     CyExitCriticalSection(interruptState);
 603              		.loc 1 1173 0
 604 0034 FFF7FEFF 		bl	CyExitCriticalSection
 605              	.LVL42:
1174:.\Generated_Source\PSoC4/CyLib.c **** }
 606              		.loc 1 1174 0
 607              		@ sp needed
 608              	.LVL43:
 609 0038 38BD     		pop	{r3, r4, r5, pc}
 610              	.L48:
 611 003a C046     		.align	2
 612              	.L47:
 613 003c 00E400E0 		.word	-536812544
 614              		.cfi_endproc
 615              	.LFE16:
 616              		.size	CyIntSetPriority, .-CyIntSetPriority
 617              		.section	.text.CyIntGetPriority,"ax",%progbits
 618              		.align	1
 619              		.global	CyIntGetPriority
 620              		.code	16
 621              		.thumb_func
ARM GAS  C:\Users\moxon\AppData\Local\Temp\ccM9MmHX.s 			page 36


 622              		.type	CyIntGetPriority, %function
 623              	CyIntGetPriority:
 624              	.LFB17:
1192:.\Generated_Source\PSoC4/CyLib.c **** {
 625              		.loc 1 1192 0
 626              		.cfi_startproc
 627              	.LVL44:
1195:.\Generated_Source\PSoC4/CyLib.c ****     CYASSERT(number < CY_NUM_INTERRUPTS);
 628              		.loc 1 1195 0
 629 0000 1F28     		cmp	r0, #31
 630 0002 00D9     		bls	.L50
 631              	.LVL45:
 632              	.LBB38:
 633              	.LBB39:
 634              		.loc 1 1327 0
 635              	@ 1327 ".\Generated_Source\PSoC4\CyLib.c" 1
 636 0004 01BE     		    bkpt    1
 637              	@ 0 "" 2
 638              	.LVL46:
 639              		.code	16
 640              	.L50:
 641              	.LBE39:
 642              	.LBE38:
1197:.\Generated_Source\PSoC4/CyLib.c ****     priority = (uint8) (CY_INT_PRIORITY_REG(number) >> CY_INT_PRIORITY_SHIFT(number));
 643              		.loc 1 1197 0
 644 0006 8308     		lsr	r3, r0, #2
 645 0008 054A     		ldr	r2, .L51
 646 000a 9B00     		lsl	r3, r3, #2
 647 000c 9B18     		add	r3, r3, r2
 648 000e 1A68     		ldr	r2, [r3]
 649              	.LVL47:
 650 0010 0323     		mov	r3, #3
 651 0012 1840     		and	r0, r3
 652              	.LVL48:
 653 0014 9840     		lsl	r0, r0, r3
 654 0016 0630     		add	r0, r0, #6
 655 0018 C240     		lsr	r2, r2, r0
 656 001a 101C     		mov	r0, r2
1199:.\Generated_Source\PSoC4/CyLib.c ****     return (priority & (uint8) CY_INT_PRIORITY_MASK);
 657              		.loc 1 1199 0
 658 001c 1840     		and	r0, r3
1200:.\Generated_Source\PSoC4/CyLib.c **** }
 659              		.loc 1 1200 0
 660              		@ sp needed
 661 001e 7047     		bx	lr
 662              	.L52:
 663              		.align	2
 664              	.L51:
 665 0020 00E400E0 		.word	-536812544
 666              		.cfi_endproc
 667              	.LFE17:
 668              		.size	CyIntGetPriority, .-CyIntGetPriority
 669              		.section	.text.CyIntEnable,"ax",%progbits
 670              		.align	1
 671              		.global	CyIntEnable
 672              		.code	16
 673              		.thumb_func
ARM GAS  C:\Users\moxon\AppData\Local\Temp\ccM9MmHX.s 			page 37


 674              		.type	CyIntEnable, %function
 675              	CyIntEnable:
 676              	.LFB18:
1218:.\Generated_Source\PSoC4/CyLib.c **** {
 677              		.loc 1 1218 0
 678              		.cfi_startproc
 679              	.LVL49:
1219:.\Generated_Source\PSoC4/CyLib.c ****     CY_INT_ENABLE_REG = ((uint32) 0x01u << (CY_INT_ENABLE_RANGE_MASK & number));
 680              		.loc 1 1219 0
 681 0000 1F23     		mov	r3, #31
 682 0002 1840     		and	r0, r3
 683              	.LVL50:
 684 0004 0123     		mov	r3, #1
 685 0006 8340     		lsl	r3, r3, r0
 686 0008 181C     		mov	r0, r3
 687 000a 014B     		ldr	r3, .L54
1220:.\Generated_Source\PSoC4/CyLib.c **** }
 688              		.loc 1 1220 0
 689              		@ sp needed
1219:.\Generated_Source\PSoC4/CyLib.c ****     CY_INT_ENABLE_REG = ((uint32) 0x01u << (CY_INT_ENABLE_RANGE_MASK & number));
 690              		.loc 1 1219 0
 691 000c 1860     		str	r0, [r3]
1220:.\Generated_Source\PSoC4/CyLib.c **** }
 692              		.loc 1 1220 0
 693 000e 7047     		bx	lr
 694              	.L55:
 695              		.align	2
 696              	.L54:
 697 0010 00E100E0 		.word	-536813312
 698              		.cfi_endproc
 699              	.LFE18:
 700              		.size	CyIntEnable, .-CyIntEnable
 701              		.section	.text.CyIntGetState,"ax",%progbits
 702              		.align	1
 703              		.global	CyIntGetState
 704              		.code	16
 705              		.thumb_func
 706              		.type	CyIntGetState, %function
 707              	CyIntGetState:
 708              	.LFB19:
1238:.\Generated_Source\PSoC4/CyLib.c **** {
 709              		.loc 1 1238 0
 710              		.cfi_startproc
 711              	.LVL51:
1240:.\Generated_Source\PSoC4/CyLib.c ****     return ((0u != (CY_INT_ENABLE_REG & ((uint32) 0x01u << (CY_INT_ENABLE_RANGE_MASK & number)))) ?
 712              		.loc 1 1240 0
 713 0000 044B     		ldr	r3, .L57
 714 0002 1F22     		mov	r2, #31
 715 0004 1B68     		ldr	r3, [r3]
 716 0006 1040     		and	r0, r2
 717              	.LVL52:
 718 0008 C340     		lsr	r3, r3, r0
 719 000a 181C     		mov	r0, r3
 720 000c 0123     		mov	r3, #1
 721 000e 1840     		and	r0, r3
1241:.\Generated_Source\PSoC4/CyLib.c **** }
 722              		.loc 1 1241 0
ARM GAS  C:\Users\moxon\AppData\Local\Temp\ccM9MmHX.s 			page 38


 723              		@ sp needed
 724 0010 7047     		bx	lr
 725              	.L58:
 726 0012 C046     		.align	2
 727              	.L57:
 728 0014 00E100E0 		.word	-536813312
 729              		.cfi_endproc
 730              	.LFE19:
 731              		.size	CyIntGetState, .-CyIntGetState
 732              		.section	.text.CyIntDisable,"ax",%progbits
 733              		.align	1
 734              		.global	CyIntDisable
 735              		.code	16
 736              		.thumb_func
 737              		.type	CyIntDisable, %function
 738              	CyIntDisable:
 739              	.LFB20:
1259:.\Generated_Source\PSoC4/CyLib.c **** {
 740              		.loc 1 1259 0
 741              		.cfi_startproc
 742              	.LVL53:
1260:.\Generated_Source\PSoC4/CyLib.c ****     CY_INT_CLEAR_REG = ((uint32) 0x01u << (CY_INT_ENABLE_RANGE_MASK & number));
 743              		.loc 1 1260 0
 744 0000 1F23     		mov	r3, #31
 745 0002 1840     		and	r0, r3
 746              	.LVL54:
 747 0004 0123     		mov	r3, #1
 748 0006 8340     		lsl	r3, r3, r0
 749 0008 181C     		mov	r0, r3
 750 000a 014B     		ldr	r3, .L60
1261:.\Generated_Source\PSoC4/CyLib.c **** }
 751              		.loc 1 1261 0
 752              		@ sp needed
1260:.\Generated_Source\PSoC4/CyLib.c ****     CY_INT_CLEAR_REG = ((uint32) 0x01u << (CY_INT_ENABLE_RANGE_MASK & number));
 753              		.loc 1 1260 0
 754 000c 1860     		str	r0, [r3]
1261:.\Generated_Source\PSoC4/CyLib.c **** }
 755              		.loc 1 1261 0
 756 000e 7047     		bx	lr
 757              	.L61:
 758              		.align	2
 759              	.L60:
 760 0010 80E100E0 		.word	-536813184
 761              		.cfi_endproc
 762              	.LFE20:
 763              		.size	CyIntDisable, .-CyIntDisable
 764              		.section	.text.CyIntSetPending,"ax",%progbits
 765              		.align	1
 766              		.global	CyIntSetPending
 767              		.code	16
 768              		.thumb_func
 769              		.type	CyIntSetPending, %function
 770              	CyIntSetPending:
 771              	.LFB21:
1278:.\Generated_Source\PSoC4/CyLib.c **** {
 772              		.loc 1 1278 0
 773              		.cfi_startproc
ARM GAS  C:\Users\moxon\AppData\Local\Temp\ccM9MmHX.s 			page 39


 774              	.LVL55:
1279:.\Generated_Source\PSoC4/CyLib.c ****     CY_INT_SET_PEND_REG = ((uint32) 0x01u << (CY_INT_ENABLE_RANGE_MASK & number));
 775              		.loc 1 1279 0
 776 0000 1F23     		mov	r3, #31
 777 0002 1840     		and	r0, r3
 778              	.LVL56:
 779 0004 0123     		mov	r3, #1
 780 0006 8340     		lsl	r3, r3, r0
 781 0008 181C     		mov	r0, r3
 782 000a 014B     		ldr	r3, .L63
1280:.\Generated_Source\PSoC4/CyLib.c **** }
 783              		.loc 1 1280 0
 784              		@ sp needed
1279:.\Generated_Source\PSoC4/CyLib.c ****     CY_INT_SET_PEND_REG = ((uint32) 0x01u << (CY_INT_ENABLE_RANGE_MASK & number));
 785              		.loc 1 1279 0
 786 000c 1860     		str	r0, [r3]
1280:.\Generated_Source\PSoC4/CyLib.c **** }
 787              		.loc 1 1280 0
 788 000e 7047     		bx	lr
 789              	.L64:
 790              		.align	2
 791              	.L63:
 792 0010 00E200E0 		.word	-536813056
 793              		.cfi_endproc
 794              	.LFE21:
 795              		.size	CyIntSetPending, .-CyIntSetPending
 796              		.section	.text.CyIntClearPending,"ax",%progbits
 797              		.align	1
 798              		.global	CyIntClearPending
 799              		.code	16
 800              		.thumb_func
 801              		.type	CyIntClearPending, %function
 802              	CyIntClearPending:
 803              	.LFB22:
1298:.\Generated_Source\PSoC4/CyLib.c **** {
 804              		.loc 1 1298 0
 805              		.cfi_startproc
 806              	.LVL57:
1299:.\Generated_Source\PSoC4/CyLib.c ****     CY_INT_CLR_PEND_REG = ((uint32) 0x01u << (CY_INT_ENABLE_RANGE_MASK & number));
 807              		.loc 1 1299 0
 808 0000 1F23     		mov	r3, #31
 809 0002 1840     		and	r0, r3
 810              	.LVL58:
 811 0004 0123     		mov	r3, #1
 812 0006 8340     		lsl	r3, r3, r0
 813 0008 181C     		mov	r0, r3
 814 000a 014B     		ldr	r3, .L66
1300:.\Generated_Source\PSoC4/CyLib.c **** }
 815              		.loc 1 1300 0
 816              		@ sp needed
1299:.\Generated_Source\PSoC4/CyLib.c ****     CY_INT_CLR_PEND_REG = ((uint32) 0x01u << (CY_INT_ENABLE_RANGE_MASK & number));
 817              		.loc 1 1299 0
 818 000c 1860     		str	r0, [r3]
1300:.\Generated_Source\PSoC4/CyLib.c **** }
 819              		.loc 1 1300 0
 820 000e 7047     		bx	lr
 821              	.L67:
ARM GAS  C:\Users\moxon\AppData\Local\Temp\ccM9MmHX.s 			page 40


 822              		.align	2
 823              	.L66:
 824 0010 80E200E0 		.word	-536812928
 825              		.cfi_endproc
 826              	.LFE22:
 827              		.size	CyIntClearPending, .-CyIntClearPending
 828              		.section	.text.CyHalt,"ax",%progbits
 829              		.align	1
 830              		.global	CyHalt
 831              		.code	16
 832              		.thumb_func
 833              		.type	CyHalt, %function
 834              	CyHalt:
 835              	.LFB23:
1318:.\Generated_Source\PSoC4/CyLib.c **** {
 836              		.loc 1 1318 0
 837              		.cfi_startproc
 838              	.LVL59:
 839              		.loc 1 1327 0
 840              	@ 1327 ".\Generated_Source\PSoC4\CyLib.c" 1
 841 0000 01BE     		    bkpt    1
 842              	@ 0 "" 2
1328:.\Generated_Source\PSoC4/CyLib.c ****     #elif defined(__C51__)
1329:.\Generated_Source\PSoC4/CyLib.c ****         CYDEV_HALT_CPU;
1330:.\Generated_Source\PSoC4/CyLib.c ****     #endif  /* (__ARMCC_VERSION) */
1331:.\Generated_Source\PSoC4/CyLib.c **** }
 843              		.loc 1 1331 0
 844              		.code	16
 845              		@ sp needed
 846 0002 7047     		bx	lr
 847              		.cfi_endproc
 848              	.LFE23:
 849              		.size	CyHalt, .-CyHalt
 850              		.section	.text.CySoftwareReset,"ax",%progbits
 851              		.align	1
 852              		.global	CySoftwareReset
 853              		.code	16
 854              		.thumb_func
 855              		.type	CySoftwareReset, %function
 856              	CySoftwareReset:
 857              	.LFB24:
1332:.\Generated_Source\PSoC4/CyLib.c **** 
1333:.\Generated_Source\PSoC4/CyLib.c **** 
1334:.\Generated_Source\PSoC4/CyLib.c **** /*******************************************************************************
1335:.\Generated_Source\PSoC4/CyLib.c **** * Function Name: CySoftwareReset
1336:.\Generated_Source\PSoC4/CyLib.c **** ********************************************************************************
1337:.\Generated_Source\PSoC4/CyLib.c **** *
1338:.\Generated_Source\PSoC4/CyLib.c **** * Summary:
1339:.\Generated_Source\PSoC4/CyLib.c **** *  Forces a software reset of the device.
1340:.\Generated_Source\PSoC4/CyLib.c **** *
1341:.\Generated_Source\PSoC4/CyLib.c **** * Parameters:
1342:.\Generated_Source\PSoC4/CyLib.c **** *  None
1343:.\Generated_Source\PSoC4/CyLib.c **** *
1344:.\Generated_Source\PSoC4/CyLib.c **** * Return:
1345:.\Generated_Source\PSoC4/CyLib.c **** *  None
1346:.\Generated_Source\PSoC4/CyLib.c **** *
1347:.\Generated_Source\PSoC4/CyLib.c **** *******************************************************************************/
ARM GAS  C:\Users\moxon\AppData\Local\Temp\ccM9MmHX.s 			page 41


1348:.\Generated_Source\PSoC4/CyLib.c **** void CySoftwareReset(void)
1349:.\Generated_Source\PSoC4/CyLib.c **** {
 858              		.loc 1 1349 0
 859              		.cfi_startproc
1350:.\Generated_Source\PSoC4/CyLib.c ****     /***************************************************************************
1351:.\Generated_Source\PSoC4/CyLib.c ****     * Setting the system reset request bit. The vector key value must be written
1352:.\Generated_Source\PSoC4/CyLib.c ****     * to the register, otherwise the register write is unpredictable.
1353:.\Generated_Source\PSoC4/CyLib.c ****     ***************************************************************************/
1354:.\Generated_Source\PSoC4/CyLib.c ****     CY_SYS_CM0_AIRCR_REG = (CY_SYS_CM0_AIRCR_REG & (uint32)(~CY_SYS_CM0_AIRCR_VECTKEY_MASK)) |
 860              		.loc 1 1354 0
 861 0000 034B     		ldr	r3, .L70
1355:.\Generated_Source\PSoC4/CyLib.c ****                             CY_SYS_CM0_AIRCR_VECTKEY | CY_SYS_CM0_AIRCR_SYSRESETREQ;
 862              		.loc 1 1355 0
 863 0002 0449     		ldr	r1, .L70+4
1354:.\Generated_Source\PSoC4/CyLib.c ****     CY_SYS_CM0_AIRCR_REG = (CY_SYS_CM0_AIRCR_REG & (uint32)(~CY_SYS_CM0_AIRCR_VECTKEY_MASK)) |
 864              		.loc 1 1354 0
 865 0004 1A68     		ldr	r2, [r3]
1356:.\Generated_Source\PSoC4/CyLib.c **** }
 866              		.loc 1 1356 0
 867              		@ sp needed
1354:.\Generated_Source\PSoC4/CyLib.c ****     CY_SYS_CM0_AIRCR_REG = (CY_SYS_CM0_AIRCR_REG & (uint32)(~CY_SYS_CM0_AIRCR_VECTKEY_MASK)) |
 868              		.loc 1 1354 0
 869 0006 92B2     		uxth	r2, r2
1355:.\Generated_Source\PSoC4/CyLib.c ****                             CY_SYS_CM0_AIRCR_VECTKEY | CY_SYS_CM0_AIRCR_SYSRESETREQ;
 870              		.loc 1 1355 0
 871 0008 0A43     		orr	r2, r1
1354:.\Generated_Source\PSoC4/CyLib.c ****     CY_SYS_CM0_AIRCR_REG = (CY_SYS_CM0_AIRCR_REG & (uint32)(~CY_SYS_CM0_AIRCR_VECTKEY_MASK)) |
 872              		.loc 1 1354 0
 873 000a 1A60     		str	r2, [r3]
 874              		.loc 1 1356 0
 875 000c 7047     		bx	lr
 876              	.L71:
 877 000e C046     		.align	2
 878              	.L70:
 879 0010 0CED00E0 		.word	-536810228
 880 0014 0400FA05 		.word	100270084
 881              		.cfi_endproc
 882              	.LFE24:
 883              		.size	CySoftwareReset, .-CySoftwareReset
 884              		.section	.text.CyDelay,"ax",%progbits
 885              		.align	1
 886              		.global	CyDelay
 887              		.code	16
 888              		.thumb_func
 889              		.type	CyDelay, %function
 890              	CyDelay:
 891              	.LFB25:
1357:.\Generated_Source\PSoC4/CyLib.c **** 
1358:.\Generated_Source\PSoC4/CyLib.c **** 
1359:.\Generated_Source\PSoC4/CyLib.c **** /*******************************************************************************
1360:.\Generated_Source\PSoC4/CyLib.c **** * Function Name: CyDelay
1361:.\Generated_Source\PSoC4/CyLib.c **** ********************************************************************************
1362:.\Generated_Source\PSoC4/CyLib.c **** *
1363:.\Generated_Source\PSoC4/CyLib.c **** * Summary:
1364:.\Generated_Source\PSoC4/CyLib.c **** *  Blocks for milliseconds.
1365:.\Generated_Source\PSoC4/CyLib.c **** *
1366:.\Generated_Source\PSoC4/CyLib.c **** * Parameters:
ARM GAS  C:\Users\moxon\AppData\Local\Temp\ccM9MmHX.s 			page 42


1367:.\Generated_Source\PSoC4/CyLib.c **** *  milliseconds: number of milliseconds to delay.
1368:.\Generated_Source\PSoC4/CyLib.c **** *
1369:.\Generated_Source\PSoC4/CyLib.c **** * Return:
1370:.\Generated_Source\PSoC4/CyLib.c **** *  None
1371:.\Generated_Source\PSoC4/CyLib.c **** *
1372:.\Generated_Source\PSoC4/CyLib.c **** *******************************************************************************/
1373:.\Generated_Source\PSoC4/CyLib.c **** void CyDelay(uint32 milliseconds)
1374:.\Generated_Source\PSoC4/CyLib.c **** {
 892              		.loc 1 1374 0
 893              		.cfi_startproc
 894              	.LVL60:
 895 0000 10B5     		push	{r4, lr}
 896              		.cfi_def_cfa_offset 8
 897              		.cfi_offset 4, -8
 898              		.cfi_offset 14, -4
 899 0002 041C     		mov	r4, r0
 900              	.LVL61:
 901              	.L73:
1375:.\Generated_Source\PSoC4/CyLib.c ****     while (milliseconds > CY_DELAY_MS_OVERFLOW)
 902              		.loc 1 1375 0 discriminator 1
 903 0004 8022     		mov	r2, #128
 904 0006 074B     		ldr	r3, .L76
 905 0008 1202     		lsl	r2, r2, #8
 906 000a 9442     		cmp	r4, r2
 907 000c 05D9     		bls	.L75
1376:.\Generated_Source\PSoC4/CyLib.c ****     {
1377:.\Generated_Source\PSoC4/CyLib.c ****         /* This loop prevents overflow.
1378:.\Generated_Source\PSoC4/CyLib.c ****          * At 100MHz, milliseconds * cydelayFreqKhz overflows at about 42 seconds
1379:.\Generated_Source\PSoC4/CyLib.c ****          */
1380:.\Generated_Source\PSoC4/CyLib.c ****         CyDelayCycles(cydelay32kMs);
 908              		.loc 1 1380 0
 909 000e 1868     		ldr	r0, [r3]
 910 0010 FFF7FEFF 		bl	CyDelayCycles
 911              	.LVL62:
1381:.\Generated_Source\PSoC4/CyLib.c ****         milliseconds -= CY_DELAY_MS_OVERFLOW;
 912              		.loc 1 1381 0
 913 0014 044B     		ldr	r3, .L76+4
 914 0016 E418     		add	r4, r4, r3
 915              	.LVL63:
 916 0018 F4E7     		b	.L73
 917              	.L75:
1382:.\Generated_Source\PSoC4/CyLib.c ****     }
1383:.\Generated_Source\PSoC4/CyLib.c **** 
1384:.\Generated_Source\PSoC4/CyLib.c ****     CyDelayCycles(milliseconds * cydelayFreqKhz);
 918              		.loc 1 1384 0
 919 001a 5868     		ldr	r0, [r3, #4]
1385:.\Generated_Source\PSoC4/CyLib.c **** }
 920              		.loc 1 1385 0
 921              		@ sp needed
1384:.\Generated_Source\PSoC4/CyLib.c ****     CyDelayCycles(milliseconds * cydelayFreqKhz);
 922              		.loc 1 1384 0
 923 001c 6043     		mul	r0, r4
 924 001e FFF7FEFF 		bl	CyDelayCycles
 925              	.LVL64:
 926              	.LVL65:
 927              		.loc 1 1385 0
 928 0022 10BD     		pop	{r4, pc}
ARM GAS  C:\Users\moxon\AppData\Local\Temp\ccM9MmHX.s 			page 43


 929              	.L77:
 930              		.align	2
 931              	.L76:
 932 0024 00000000 		.word	.LANCHOR0
 933 0028 0080FFFF 		.word	-32768
 934              		.cfi_endproc
 935              	.LFE25:
 936              		.size	CyDelay, .-CyDelay
 937              		.section	.text.CyDelayUs,"ax",%progbits
 938              		.align	1
 939              		.global	CyDelayUs
 940              		.code	16
 941              		.thumb_func
 942              		.type	CyDelayUs, %function
 943              	CyDelayUs:
 944              	.LFB26:
1386:.\Generated_Source\PSoC4/CyLib.c **** 
1387:.\Generated_Source\PSoC4/CyLib.c **** 
1388:.\Generated_Source\PSoC4/CyLib.c **** /*******************************************************************************
1389:.\Generated_Source\PSoC4/CyLib.c **** * Function Name: CyDelayUs
1390:.\Generated_Source\PSoC4/CyLib.c **** ********************************************************************************
1391:.\Generated_Source\PSoC4/CyLib.c **** * Summary:
1392:.\Generated_Source\PSoC4/CyLib.c **** *  Blocks for microseconds.
1393:.\Generated_Source\PSoC4/CyLib.c **** *
1394:.\Generated_Source\PSoC4/CyLib.c **** * Parameters:
1395:.\Generated_Source\PSoC4/CyLib.c **** *  microseconds: number of microseconds to delay.
1396:.\Generated_Source\PSoC4/CyLib.c **** *
1397:.\Generated_Source\PSoC4/CyLib.c **** * Return:
1398:.\Generated_Source\PSoC4/CyLib.c **** *  None
1399:.\Generated_Source\PSoC4/CyLib.c **** *
1400:.\Generated_Source\PSoC4/CyLib.c **** *******************************************************************************/
1401:.\Generated_Source\PSoC4/CyLib.c **** void CyDelayUs(uint16 microseconds)
1402:.\Generated_Source\PSoC4/CyLib.c **** {
 945              		.loc 1 1402 0
 946              		.cfi_startproc
 947              	.LVL66:
 948 0000 08B5     		push	{r3, lr}
 949              		.cfi_def_cfa_offset 8
 950              		.cfi_offset 3, -8
 951              		.cfi_offset 14, -4
1403:.\Generated_Source\PSoC4/CyLib.c ****     CyDelayCycles((uint32)microseconds * cydelayFreqMhz);
 952              		.loc 1 1403 0
 953 0002 034B     		ldr	r3, .L79
1404:.\Generated_Source\PSoC4/CyLib.c **** }
 954              		.loc 1 1404 0
 955              		@ sp needed
1403:.\Generated_Source\PSoC4/CyLib.c ****     CyDelayCycles((uint32)microseconds * cydelayFreqMhz);
 956              		.loc 1 1403 0
 957 0004 1B7A     		ldrb	r3, [r3, #8]
 958 0006 5843     		mul	r0, r3
 959              	.LVL67:
 960 0008 FFF7FEFF 		bl	CyDelayCycles
 961              	.LVL68:
 962              		.loc 1 1404 0
 963 000c 08BD     		pop	{r3, pc}
 964              	.L80:
 965 000e C046     		.align	2
ARM GAS  C:\Users\moxon\AppData\Local\Temp\ccM9MmHX.s 			page 44


 966              	.L79:
 967 0010 00000000 		.word	.LANCHOR0
 968              		.cfi_endproc
 969              	.LFE26:
 970              		.size	CyDelayUs, .-CyDelayUs
 971              		.section	.text.CySysClkWriteImoFreq,"ax",%progbits
 972              		.align	1
 973              		.global	CySysClkWriteImoFreq
 974              		.code	16
 975              		.thumb_func
 976              		.type	CySysClkWriteImoFreq, %function
 977              	CySysClkWriteImoFreq:
 978              	.LFB4:
 391:.\Generated_Source\PSoC4/CyLib.c ****     {
 979              		.loc 1 391 0
 980              		.cfi_startproc
 981              	.LVL69:
 982 0000 F0B5     		push	{r4, r5, r6, r7, lr}
 983              		.cfi_def_cfa_offset 20
 984              		.cfi_offset 4, -20
 985              		.cfi_offset 5, -16
 986              		.cfi_offset 6, -12
 987              		.cfi_offset 7, -8
 988              		.cfi_offset 14, -4
 989 0002 85B0     		sub	sp, sp, #20
 990              		.cfi_def_cfa_offset 40
 391:.\Generated_Source\PSoC4/CyLib.c ****     {
 991              		.loc 1 391 0
 992 0004 041C     		mov	r4, r0
 409:.\Generated_Source\PSoC4/CyLib.c ****         interruptState = CyEnterCriticalSection();
 993              		.loc 1 409 0
 994 0006 FFF7FEFF 		bl	CyEnterCriticalSection
 995              	.LVL70:
 438:.\Generated_Source\PSoC4/CyLib.c ****         if ((freq >= CY_SYS_CLK_IMO_MIN_FREQ_MHZ) && (freq <= CY_SYS_CLK_IMO_MAX_FREQ_MHZ))
 996              		.loc 1 438 0
 997 000a E11E     		sub	r1, r4, #3
 409:.\Generated_Source\PSoC4/CyLib.c ****         interruptState = CyEnterCriticalSection();
 998              		.loc 1 409 0
 999 000c 0390     		str	r0, [sp, #12]
 1000              	.LVL71:
 438:.\Generated_Source\PSoC4/CyLib.c ****         if ((freq >= CY_SYS_CLK_IMO_MIN_FREQ_MHZ) && (freq <= CY_SYS_CLK_IMO_MAX_FREQ_MHZ))
 1001              		.loc 1 438 0
 1002 000e 0291     		str	r1, [sp, #8]
 1003 0010 2D29     		cmp	r1, #45
 1004 0012 5BD8     		bhi	.L82
 440:.\Generated_Source\PSoC4/CyLib.c ****             if(freq <= CY_SFLASH_IMO_MAXF0_REG)
 1005              		.loc 1 440 0
 1006 0014 304B     		ldr	r3, .L93
 1007 0016 1B78     		ldrb	r3, [r3]
 1008 0018 9C42     		cmp	r4, r3
 1009 001a 04D8     		bhi	.L83
 442:.\Generated_Source\PSoC4/CyLib.c ****                 bgTrim4 = CY_SFLASH_IMO_ABS0_REG;
 1010              		.loc 1 442 0
 1011 001c 2F4B     		ldr	r3, .L93+4
 1012 001e 1D78     		ldrb	r5, [r3]
 443:.\Generated_Source\PSoC4/CyLib.c ****                 bgTrim5 = CY_SFLASH_IMO_TMPCO0_REG;
 1013              		.loc 1 443 0
ARM GAS  C:\Users\moxon\AppData\Local\Temp\ccM9MmHX.s 			page 45


 1014 0020 2F4B     		ldr	r3, .L93+8
 442:.\Generated_Source\PSoC4/CyLib.c ****                 bgTrim4 = CY_SFLASH_IMO_ABS0_REG;
 1015              		.loc 1 442 0
 1016 0022 EDB2     		uxtb	r5, r5
 1017              	.LVL72:
 1018 0024 1EE0     		b	.L91
 1019              	.LVL73:
 1020              	.L83:
 445:.\Generated_Source\PSoC4/CyLib.c ****             else if(freq <= CY_SFLASH_IMO_MAXF1_REG)
 1021              		.loc 1 445 0
 1022 0026 2F4B     		ldr	r3, .L93+12
 1023 0028 1B78     		ldrb	r3, [r3]
 1024 002a 9C42     		cmp	r4, r3
 1025 002c 04D8     		bhi	.L85
 447:.\Generated_Source\PSoC4/CyLib.c ****                 bgTrim4 = CY_SFLASH_IMO_ABS1_REG;
 1026              		.loc 1 447 0
 1027 002e 2E4B     		ldr	r3, .L93+16
 1028 0030 1D78     		ldrb	r5, [r3]
 448:.\Generated_Source\PSoC4/CyLib.c ****                 bgTrim5 = CY_SFLASH_IMO_TMPCO1_REG;
 1029              		.loc 1 448 0
 1030 0032 2E4B     		ldr	r3, .L93+20
 447:.\Generated_Source\PSoC4/CyLib.c ****                 bgTrim4 = CY_SFLASH_IMO_ABS1_REG;
 1031              		.loc 1 447 0
 1032 0034 EDB2     		uxtb	r5, r5
 1033              	.LVL74:
 1034 0036 15E0     		b	.L91
 1035              	.LVL75:
 1036              	.L85:
 450:.\Generated_Source\PSoC4/CyLib.c ****             else if(freq <= CY_SFLASH_IMO_MAXF2_REG)
 1037              		.loc 1 450 0
 1038 0038 2D4B     		ldr	r3, .L93+24
 1039 003a 1B78     		ldrb	r3, [r3]
 1040 003c 9C42     		cmp	r4, r3
 1041 003e 04D8     		bhi	.L86
 452:.\Generated_Source\PSoC4/CyLib.c ****                 bgTrim4 = CY_SFLASH_IMO_ABS2_REG;
 1042              		.loc 1 452 0
 1043 0040 2C4B     		ldr	r3, .L93+28
 1044 0042 1D78     		ldrb	r5, [r3]
 453:.\Generated_Source\PSoC4/CyLib.c ****                 bgTrim5 = CY_SFLASH_IMO_TMPCO2_REG;
 1045              		.loc 1 453 0
 1046 0044 2C4B     		ldr	r3, .L93+32
 452:.\Generated_Source\PSoC4/CyLib.c ****                 bgTrim4 = CY_SFLASH_IMO_ABS2_REG;
 1047              		.loc 1 452 0
 1048 0046 EDB2     		uxtb	r5, r5
 1049              	.LVL76:
 1050 0048 0CE0     		b	.L91
 1051              	.LVL77:
 1052              	.L86:
 455:.\Generated_Source\PSoC4/CyLib.c ****             else if(freq <= CY_SFLASH_IMO_MAXF3_REG)
 1053              		.loc 1 455 0
 1054 004a 2C4B     		ldr	r3, .L93+36
 1055 004c 1B78     		ldrb	r3, [r3]
 1056 004e 9C42     		cmp	r4, r3
 1057 0050 04D8     		bhi	.L87
 457:.\Generated_Source\PSoC4/CyLib.c ****                 bgTrim4 = CY_SFLASH_IMO_ABS3_REG;
 1058              		.loc 1 457 0
 1059 0052 2B4B     		ldr	r3, .L93+40
ARM GAS  C:\Users\moxon\AppData\Local\Temp\ccM9MmHX.s 			page 46


 1060 0054 1D78     		ldrb	r5, [r3]
 458:.\Generated_Source\PSoC4/CyLib.c ****                 bgTrim5 = CY_SFLASH_IMO_TMPCO3_REG;
 1061              		.loc 1 458 0
 1062 0056 2B4B     		ldr	r3, .L93+44
 457:.\Generated_Source\PSoC4/CyLib.c ****                 bgTrim4 = CY_SFLASH_IMO_ABS3_REG;
 1063              		.loc 1 457 0
 1064 0058 EDB2     		uxtb	r5, r5
 1065              	.LVL78:
 1066 005a 03E0     		b	.L91
 1067              	.LVL79:
 1068              	.L87:
 462:.\Generated_Source\PSoC4/CyLib.c ****                 bgTrim4 = CY_SFLASH_IMO_ABS4_REG;
 1069              		.loc 1 462 0
 1070 005c 2A4B     		ldr	r3, .L93+48
 1071 005e 1D78     		ldrb	r5, [r3]
 463:.\Generated_Source\PSoC4/CyLib.c ****                 bgTrim5 = CY_SFLASH_IMO_TMPCO4_REG;
 1072              		.loc 1 463 0
 1073 0060 2A4B     		ldr	r3, .L93+52
 462:.\Generated_Source\PSoC4/CyLib.c ****                 bgTrim4 = CY_SFLASH_IMO_ABS4_REG;
 1074              		.loc 1 462 0
 1075 0062 EDB2     		uxtb	r5, r5
 1076              	.LVL80:
 1077              	.L91:
 463:.\Generated_Source\PSoC4/CyLib.c ****                 bgTrim5 = CY_SFLASH_IMO_TMPCO4_REG;
 1078              		.loc 1 463 0
 1079 0064 1B78     		ldrb	r3, [r3]
 467:.\Generated_Source\PSoC4/CyLib.c ****             newImoTrim2Value = cyImoFreqMhz2Reg[freq - CY_SYS_CLK_IMO_FREQ_TABLE_OFFSET];
 1080              		.loc 1 467 0
 1081 0066 029A     		ldr	r2, [sp, #8]
 463:.\Generated_Source\PSoC4/CyLib.c ****                 bgTrim5 = CY_SFLASH_IMO_TMPCO4_REG;
 1082              		.loc 1 463 0
 1083 0068 DBB2     		uxtb	r3, r3
 1084 006a 0093     		str	r3, [sp]
 1085              	.LVL81:
 467:.\Generated_Source\PSoC4/CyLib.c ****             newImoTrim2Value = cyImoFreqMhz2Reg[freq - CY_SYS_CLK_IMO_FREQ_TABLE_OFFSET];
 1086              		.loc 1 467 0
 1087 006c 284B     		ldr	r3, .L93+56
 1088 006e 294E     		ldr	r6, .L93+60
 1089 0070 9A5C     		ldrb	r2, [r3, r2]
 1090 0072 0192     		str	r2, [sp, #4]
 1091              	.LVL82:
 479:.\Generated_Source\PSoC4/CyLib.c ****             if ((newImoTrim2Value >= CY_SYS_CLK_IMO_BOUNDARY_FREQ_TRIM2) && (freq >= CY_SYS_CLK_IMO
 1092              		.loc 1 479 0
 1093 0074 2F2A     		cmp	r2, #47
 1094 0076 04D9     		bls	.L88
 479:.\Generated_Source\PSoC4/CyLib.c ****             if ((newImoTrim2Value >= CY_SYS_CLK_IMO_BOUNDARY_FREQ_TRIM2) && (freq >= CY_SYS_CLK_IMO
 1095              		.loc 1 479 0 is_stmt 0 discriminator 1
 1096 0078 2A2C     		cmp	r4, #42
 1097 007a 02D9     		bls	.L88
 482:.\Generated_Source\PSoC4/CyLib.c ****                 CY_SYS_CLK_IMO_TRIM2_REG = (uint32) cyImoFreqMhz2Reg[CY_SYS_CLK_IMO_TEMP_FREQ_MHZ -
 1098              		.loc 1 482 0 is_stmt 1
 1099 007c 1927     		mov	r7, #25
 1100 007e 3760     		str	r7, [r6]
 1101 0080 08E0     		b	.L92
 1102              	.L88:
 491:.\Generated_Source\PSoC4/CyLib.c ****                 currentImoTrim2Value = (uint8) (CY_SYS_CLK_IMO_TRIM2_REG & CY_SYS_CLK_IMO_FREQ_BITS
 1103              		.loc 1 491 0
ARM GAS  C:\Users\moxon\AppData\Local\Temp\ccM9MmHX.s 			page 47


 1104 0082 3768     		ldr	r7, [r6]
 1105 0084 3F23     		mov	r3, #63
 1106 0086 1F40     		and	r7, r3
 1107              	.LVL83:
 503:.\Generated_Source\PSoC4/CyLib.c ****             if (newImoTrim2Value < currentImoTrim2Value)
 1108              		.loc 1 503 0
 1109 0088 019B     		ldr	r3, [sp, #4]
 1110 008a BB42     		cmp	r3, r7
 1111 008c 05D2     		bcs	.L89
 506:.\Generated_Source\PSoC4/CyLib.c ****                 CY_SYS_CLK_IMO_TRIM2_REG = cyImoFreqMhz2Reg[freq - CY_SYS_CLK_IMO_FREQ_TABLE_OFFSET
 1112              		.loc 1 506 0
 1113 008e 214B     		ldr	r3, .L93+60
 1114 0090 0199     		ldr	r1, [sp, #4]
 1115 0092 1960     		str	r1, [r3]
 1116              	.LVL84:
 1117              	.L92:
 507:.\Generated_Source\PSoC4/CyLib.c ****                 CyDelayCycles(CY_SYS_CLK_IMO_FREQ_TIMEOUT_CYCLES);
 1118              		.loc 1 507 0
 1119 0094 0520     		mov	r0, #5
 1120 0096 FFF7FEFF 		bl	CyDelayCycles
 1121              	.LVL85:
 1122              	.L89:
 511:.\Generated_Source\PSoC4/CyLib.c ****             CY_SYS_CLK_IMO_TRIM1_REG = (uint32) CY_SFLASH_IMO_TRIM_REG(freq - CY_SYS_CLK_IMO_FREQ_T
 1123              		.loc 1 511 0
 1124 009a 1C4A     		ldr	r2, .L93+52
 1125 009c 1E4B     		ldr	r3, .L93+64
 1126 009e A418     		add	r4, r4, r2
 1127              	.LVL86:
 1128 00a0 2278     		ldrb	r2, [r4]
 513:.\Generated_Source\PSoC4/CyLib.c ****             CY_PWR_BG_TRIM5_REG  = bgTrim5;
 1129              		.loc 1 513 0
 1130 00a2 0099     		ldr	r1, [sp]
 511:.\Generated_Source\PSoC4/CyLib.c ****             CY_SYS_CLK_IMO_TRIM1_REG = (uint32) CY_SFLASH_IMO_TRIM_REG(freq - CY_SYS_CLK_IMO_FREQ_T
 1131              		.loc 1 511 0
 1132 00a4 D2B2     		uxtb	r2, r2
 1133 00a6 1A60     		str	r2, [r3]
 512:.\Generated_Source\PSoC4/CyLib.c ****             CY_PWR_BG_TRIM4_REG  = bgTrim4;
 1134              		.loc 1 512 0
 1135 00a8 1C4B     		ldr	r3, .L93+68
 514:.\Generated_Source\PSoC4/CyLib.c ****             CyDelayUs(CY_SYS_CLK_IMO_TRIM_TIMEOUT_US);
 1136              		.loc 1 514 0
 1137 00aa 0520     		mov	r0, #5
 512:.\Generated_Source\PSoC4/CyLib.c ****             CY_PWR_BG_TRIM4_REG  = bgTrim4;
 1138              		.loc 1 512 0
 1139 00ac 1D60     		str	r5, [r3]
 513:.\Generated_Source\PSoC4/CyLib.c ****             CY_PWR_BG_TRIM5_REG  = bgTrim5;
 1140              		.loc 1 513 0
 1141 00ae 1C4B     		ldr	r3, .L93+72
 1142 00b0 1960     		str	r1, [r3]
 514:.\Generated_Source\PSoC4/CyLib.c ****             CyDelayUs(CY_SYS_CLK_IMO_TRIM_TIMEOUT_US);
 1143              		.loc 1 514 0
 1144 00b2 FFF7FEFF 		bl	CyDelayUs
 1145              	.LVL87:
 516:.\Generated_Source\PSoC4/CyLib.c ****             if (newImoTrim2Value > currentImoTrim2Value)
 1146              		.loc 1 516 0
 1147 00b6 019A     		ldr	r2, [sp, #4]
 1148 00b8 BA42     		cmp	r2, r7
ARM GAS  C:\Users\moxon\AppData\Local\Temp\ccM9MmHX.s 			page 48


 1149 00ba 08D9     		bls	.L90
 519:.\Generated_Source\PSoC4/CyLib.c ****                 CY_SYS_CLK_IMO_TRIM2_REG = cyImoFreqMhz2Reg[freq - CY_SYS_CLK_IMO_FREQ_TABLE_OFFSET
 1150              		.loc 1 519 0
 1151 00bc 029A     		ldr	r2, [sp, #8]
 1152 00be 1449     		ldr	r1, .L93+56
 520:.\Generated_Source\PSoC4/CyLib.c ****                 CyDelayCycles(CY_SYS_CLK_IMO_FREQ_TIMEOUT_CYCLES);
 1153              		.loc 1 520 0
 1154 00c0 0520     		mov	r0, #5
 519:.\Generated_Source\PSoC4/CyLib.c ****                 CY_SYS_CLK_IMO_TRIM2_REG = cyImoFreqMhz2Reg[freq - CY_SYS_CLK_IMO_FREQ_TABLE_OFFSET
 1155              		.loc 1 519 0
 1156 00c2 8B5C     		ldrb	r3, [r1, r2]
 1157 00c4 3360     		str	r3, [r6]
 520:.\Generated_Source\PSoC4/CyLib.c ****                 CyDelayCycles(CY_SYS_CLK_IMO_FREQ_TIMEOUT_CYCLES);
 1158              		.loc 1 520 0
 1159 00c6 FFF7FEFF 		bl	CyDelayCycles
 1160              	.LVL88:
 1161 00ca 00E0     		b	.L90
 1162              	.LVL89:
 1163              	.L82:
 1164              	.LBB40:
 1165              	.LBB41:
1327:.\Generated_Source\PSoC4/CyLib.c ****         __asm("    bkpt    1");
 1166              		.loc 1 1327 0
 1167              	@ 1327 ".\Generated_Source\PSoC4\CyLib.c" 1
 1168 00cc 01BE     		    bkpt    1
 1169              	@ 0 "" 2
 1170              	.LVL90:
 1171              		.code	16
 1172              	.L90:
 1173              	.LBE41:
 1174              	.LBE40:
 538:.\Generated_Source\PSoC4/CyLib.c ****         CyExitCriticalSection(interruptState);
 1175              		.loc 1 538 0
 1176 00ce 0398     		ldr	r0, [sp, #12]
 1177 00d0 FFF7FEFF 		bl	CyExitCriticalSection
 1178              	.LVL91:
 539:.\Generated_Source\PSoC4/CyLib.c ****     }
 1179              		.loc 1 539 0
 1180 00d4 05B0     		add	sp, sp, #20
 1181              		@ sp needed
 1182 00d6 F0BD     		pop	{r4, r5, r6, r7, pc}
 1183              	.L94:
 1184              		.align	2
 1185              	.L93:
 1186 00d8 C0F1FF0F 		.word	268431808
 1187 00dc C1F1FF0F 		.word	268431809
 1188 00e0 C2F1FF0F 		.word	268431810
 1189 00e4 C3F1FF0F 		.word	268431811
 1190 00e8 C4F1FF0F 		.word	268431812
 1191 00ec C5F1FF0F 		.word	268431813
 1192 00f0 C6F1FF0F 		.word	268431814
 1193 00f4 C7F1FF0F 		.word	268431815
 1194 00f8 C8F1FF0F 		.word	268431816
 1195 00fc C9F1FF0F 		.word	268431817
 1196 0100 CAF1FF0F 		.word	268431818
 1197 0104 CBF1FF0F 		.word	268431819
 1198 0108 CCF1FF0F 		.word	268431820
ARM GAS  C:\Users\moxon\AppData\Local\Temp\ccM9MmHX.s 			page 49


 1199 010c CDF1FF0F 		.word	268431821
 1200 0110 00000000 		.word	.LANCHOR1
 1201 0114 2CFF0B40 		.word	1074528044
 1202 0118 28FF0B40 		.word	1074528040
 1203 011c 1CFF0B40 		.word	1074528028
 1204 0120 20FF0B40 		.word	1074528032
 1205              		.cfi_endproc
 1206              	.LFE4:
 1207              		.size	CySysClkWriteImoFreq, .-CySysClkWriteImoFreq
 1208              		.section	.text.CySysLvdEnable,"ax",%progbits
 1209              		.align	1
 1210              		.global	CySysLvdEnable
 1211              		.code	16
 1212              		.thumb_func
 1213              		.type	CySysLvdEnable, %function
 1214              	CySysLvdEnable:
 1215              	.LFB5:
 849:.\Generated_Source\PSoC4/CyLib.c ****     {
 1216              		.loc 1 849 0
 1217              		.cfi_startproc
 1218              	.LVL92:
 1219 0000 38B5     		push	{r3, r4, r5, lr}
 1220              		.cfi_def_cfa_offset 16
 1221              		.cfi_offset 3, -16
 1222              		.cfi_offset 4, -12
 1223              		.cfi_offset 5, -8
 1224              		.cfi_offset 14, -4
 851:.\Generated_Source\PSoC4/CyLib.c ****         CY_LVD_PWR_INTR_MASK_REG   &= (uint32) ~CY_LVD_PROPAGATE_INT_TO_CPU;
 1225              		.loc 1 851 0
 1226 0002 0D4C     		ldr	r4, .L96
 1227 0004 0225     		mov	r5, #2
 1228 0006 2368     		ldr	r3, [r4]
 855:.\Generated_Source\PSoC4/CyLib.c ****                 ((threshold << CY_LVD_PWR_VMON_CONFIG_LVD_SEL_SHIFT) & CY_LVD_PWR_VMON_CONFIG_LVD_S
 1229              		.loc 1 855 0
 1230 0008 1E22     		mov	r2, #30
 851:.\Generated_Source\PSoC4/CyLib.c ****         CY_LVD_PWR_INTR_MASK_REG   &= (uint32) ~CY_LVD_PROPAGATE_INT_TO_CPU;
 1231              		.loc 1 851 0
 1232 000a AB43     		bic	r3, r5
 1233 000c 2360     		str	r3, [r4]
 854:.\Generated_Source\PSoC4/CyLib.c ****         CY_LVD_PWR_VMON_CONFIG_REG = (CY_LVD_PWR_VMON_CONFIG_REG & ~CY_LVD_PWR_VMON_CONFIG_LVD_SEL_
 1234              		.loc 1 854 0
 1235 000e 0B4B     		ldr	r3, .L96+4
 855:.\Generated_Source\PSoC4/CyLib.c ****                 ((threshold << CY_LVD_PWR_VMON_CONFIG_LVD_SEL_SHIFT) & CY_LVD_PWR_VMON_CONFIG_LVD_S
 1236              		.loc 1 855 0
 1237 0010 4000     		lsl	r0, r0, #1
 1238              	.LVL93:
 854:.\Generated_Source\PSoC4/CyLib.c ****         CY_LVD_PWR_VMON_CONFIG_REG = (CY_LVD_PWR_VMON_CONFIG_REG & ~CY_LVD_PWR_VMON_CONFIG_LVD_SEL_
 1239              		.loc 1 854 0
 1240 0012 1968     		ldr	r1, [r3]
 855:.\Generated_Source\PSoC4/CyLib.c ****                 ((threshold << CY_LVD_PWR_VMON_CONFIG_LVD_SEL_SHIFT) & CY_LVD_PWR_VMON_CONFIG_LVD_S
 1241              		.loc 1 855 0
 1242 0014 1040     		and	r0, r2
 854:.\Generated_Source\PSoC4/CyLib.c ****         CY_LVD_PWR_VMON_CONFIG_REG = (CY_LVD_PWR_VMON_CONFIG_REG & ~CY_LVD_PWR_VMON_CONFIG_LVD_SEL_
 1243              		.loc 1 854 0
 1244 0016 9143     		bic	r1, r2
 1245 0018 0843     		orr	r0, r1
 1246 001a 1860     		str	r0, [r3]
ARM GAS  C:\Users\moxon\AppData\Local\Temp\ccM9MmHX.s 			page 50


 858:.\Generated_Source\PSoC4/CyLib.c ****         CY_LVD_PWR_VMON_CONFIG_REG |= CY_LVD_PWR_VMON_CONFIG_LVD_EN;
 1247              		.loc 1 858 0
 1248 001c 1A68     		ldr	r2, [r3]
 1249 001e 0121     		mov	r1, #1
 1250 0020 0A43     		orr	r2, r1
 861:.\Generated_Source\PSoC4/CyLib.c ****         CyDelayUs(CY_LVD_STABILIZE_TIMEOUT_US);
 1251              		.loc 1 861 0
 1252 0022 FA20     		mov	r0, #250
 858:.\Generated_Source\PSoC4/CyLib.c ****         CY_LVD_PWR_VMON_CONFIG_REG |= CY_LVD_PWR_VMON_CONFIG_LVD_EN;
 1253              		.loc 1 858 0
 1254 0024 1A60     		str	r2, [r3]
 861:.\Generated_Source\PSoC4/CyLib.c ****         CyDelayUs(CY_LVD_STABILIZE_TIMEOUT_US);
 1255              		.loc 1 861 0
 1256 0026 A840     		lsl	r0, r0, r5
 1257 0028 FFF7FEFF 		bl	CyDelayUs
 1258              	.LVL94:
 1259              	.LBB42:
 1260              	.LBB43:
 929:.\Generated_Source\PSoC4/CyLib.c ****         CY_LVD_PWR_INTR_REG = CY_SYS_LVD_INT;
 1261              		.loc 1 929 0
 1262 002c 044B     		ldr	r3, .L96+8
 1263              	.LBE43:
 1264              	.LBE42:
 868:.\Generated_Source\PSoC4/CyLib.c ****     }
 1265              		.loc 1 868 0
 1266              		@ sp needed
 1267              	.LBB45:
 1268              	.LBB44:
 929:.\Generated_Source\PSoC4/CyLib.c ****         CY_LVD_PWR_INTR_REG = CY_SYS_LVD_INT;
 1269              		.loc 1 929 0
 1270 002e 1D60     		str	r5, [r3]
 1271              	.LBE44:
 1272              	.LBE45:
 867:.\Generated_Source\PSoC4/CyLib.c ****         CY_LVD_PWR_INTR_MASK_REG   |= CY_LVD_PROPAGATE_INT_TO_CPU;
 1273              		.loc 1 867 0
 1274 0030 2368     		ldr	r3, [r4]
 1275 0032 1D43     		orr	r5, r3
 1276 0034 2560     		str	r5, [r4]
 868:.\Generated_Source\PSoC4/CyLib.c ****     }
 1277              		.loc 1 868 0
 1278 0036 38BD     		pop	{r3, r4, r5, pc}
 1279              	.L97:
 1280              		.align	2
 1281              	.L96:
 1282 0038 08000B40 		.word	1074462728
 1283 003c 18000B40 		.word	1074462744
 1284 0040 04000B40 		.word	1074462724
 1285              		.cfi_endproc
 1286              	.LFE5:
 1287              		.size	CySysLvdEnable, .-CySysLvdEnable
 1288              		.global	__aeabi_uidiv
 1289              		.section	.text.CyDelayFreq,"ax",%progbits
 1290              		.align	1
 1291              		.global	CyDelayFreq
 1292              		.code	16
 1293              		.thumb_func
 1294              		.type	CyDelayFreq, %function
ARM GAS  C:\Users\moxon\AppData\Local\Temp\ccM9MmHX.s 			page 51


 1295              	CyDelayFreq:
 1296              	.LFB27:
1405:.\Generated_Source\PSoC4/CyLib.c **** 
1406:.\Generated_Source\PSoC4/CyLib.c **** 
1407:.\Generated_Source\PSoC4/CyLib.c **** /*******************************************************************************
1408:.\Generated_Source\PSoC4/CyLib.c **** * Function Name: CyDelayFreq
1409:.\Generated_Source\PSoC4/CyLib.c **** ********************************************************************************
1410:.\Generated_Source\PSoC4/CyLib.c **** * Summary:
1411:.\Generated_Source\PSoC4/CyLib.c **** *  Sets clock frequency for CyDelay.
1412:.\Generated_Source\PSoC4/CyLib.c **** *
1413:.\Generated_Source\PSoC4/CyLib.c **** * Parameters:
1414:.\Generated_Source\PSoC4/CyLib.c **** *  freq: Frequency of bus clock in Hertz.
1415:.\Generated_Source\PSoC4/CyLib.c **** *
1416:.\Generated_Source\PSoC4/CyLib.c **** * Return:
1417:.\Generated_Source\PSoC4/CyLib.c **** *  None
1418:.\Generated_Source\PSoC4/CyLib.c **** *
1419:.\Generated_Source\PSoC4/CyLib.c **** *******************************************************************************/
1420:.\Generated_Source\PSoC4/CyLib.c **** void CyDelayFreq(uint32 freq)
1421:.\Generated_Source\PSoC4/CyLib.c **** {
 1297              		.loc 1 1421 0
 1298              		.cfi_startproc
 1299              	.LVL95:
 1300 0000 38B5     		push	{r3, r4, r5, lr}
 1301              		.cfi_def_cfa_offset 16
 1302              		.cfi_offset 3, -16
 1303              		.cfi_offset 4, -12
 1304              		.cfi_offset 5, -8
 1305              		.cfi_offset 14, -4
 1306 0002 0C4C     		ldr	r4, .L101
1422:.\Generated_Source\PSoC4/CyLib.c ****     if (freq != 0u)
 1307              		.loc 1 1422 0
 1308 0004 0028     		cmp	r0, #0
 1309 0006 01D0     		beq	.L99
1423:.\Generated_Source\PSoC4/CyLib.c ****     {
1424:.\Generated_Source\PSoC4/CyLib.c ****         cydelayFreqHz = freq;
 1310              		.loc 1 1424 0
 1311 0008 E060     		str	r0, [r4, #12]
 1312 000a 01E0     		b	.L100
 1313              	.L99:
1425:.\Generated_Source\PSoC4/CyLib.c ****     }
1426:.\Generated_Source\PSoC4/CyLib.c ****     else
1427:.\Generated_Source\PSoC4/CyLib.c ****     {
1428:.\Generated_Source\PSoC4/CyLib.c ****         cydelayFreqHz = CYDEV_BCLK__SYSCLK__HZ;
 1314              		.loc 1 1428 0
 1315 000c 0A4B     		ldr	r3, .L101+4
 1316 000e E360     		str	r3, [r4, #12]
 1317              	.L100:
1429:.\Generated_Source\PSoC4/CyLib.c ****     }
1430:.\Generated_Source\PSoC4/CyLib.c **** 
1431:.\Generated_Source\PSoC4/CyLib.c ****     cydelayFreqMhz = (uint8)((cydelayFreqHz + CY_DELAY_1M_MINUS_1_THRESHOLD) / CY_DELAY_1M_THRESHOL
 1318              		.loc 1 1431 0
 1319 0010 E568     		ldr	r5, [r4, #12]
 1320 0012 0A4B     		ldr	r3, .L101+8
 1321 0014 0A49     		ldr	r1, .L101+12
 1322 0016 E818     		add	r0, r5, r3
 1323              	.LVL96:
 1324 0018 FFF7FEFF 		bl	__aeabi_uidiv
ARM GAS  C:\Users\moxon\AppData\Local\Temp\ccM9MmHX.s 			page 52


 1325              	.LVL97:
1432:.\Generated_Source\PSoC4/CyLib.c ****     cydelayFreqKhz = (cydelayFreqHz + CY_DELAY_1K_MINUS_1_THRESHOLD) / CY_DELAY_1K_THRESHOLD;
 1326              		.loc 1 1432 0
 1327 001c 094B     		ldr	r3, .L101+16
 1328 001e FA21     		mov	r1, #250
1431:.\Generated_Source\PSoC4/CyLib.c ****     cydelayFreqMhz = (uint8)((cydelayFreqHz + CY_DELAY_1M_MINUS_1_THRESHOLD) / CY_DELAY_1M_THRESHOL
 1329              		.loc 1 1431 0
 1330 0020 2072     		strb	r0, [r4, #8]
 1331              		.loc 1 1432 0
 1332 0022 8900     		lsl	r1, r1, #2
 1333 0024 E818     		add	r0, r5, r3
 1334 0026 FFF7FEFF 		bl	__aeabi_uidiv
 1335              	.LVL98:
 1336 002a 6060     		str	r0, [r4, #4]
1433:.\Generated_Source\PSoC4/CyLib.c ****     cydelay32kMs   = CY_DELAY_MS_OVERFLOW * cydelayFreqKhz;
 1337              		.loc 1 1433 0
 1338 002c C003     		lsl	r0, r0, #15
 1339 002e 2060     		str	r0, [r4]
1434:.\Generated_Source\PSoC4/CyLib.c **** }
 1340              		.loc 1 1434 0
 1341              		@ sp needed
 1342 0030 38BD     		pop	{r3, r4, r5, pc}
 1343              	.L102:
 1344 0032 C046     		.align	2
 1345              	.L101:
 1346 0034 00000000 		.word	.LANCHOR0
 1347 0038 00366E01 		.word	24000000
 1348 003c 3F420F00 		.word	999999
 1349 0040 40420F00 		.word	1000000
 1350 0044 E7030000 		.word	999
 1351              		.cfi_endproc
 1352              	.LFE27:
 1353              		.size	CyDelayFreq, .-CyDelayFreq
 1354              		.section	.text.CySysTickInit,"ax",%progbits
 1355              		.align	1
 1356              		.global	CySysTickInit
 1357              		.code	16
 1358              		.thumb_func
 1359              		.type	CySysTickInit, %function
 1360              	CySysTickInit:
 1361              	.LFB29:
1435:.\Generated_Source\PSoC4/CyLib.c **** 
1436:.\Generated_Source\PSoC4/CyLib.c **** 
1437:.\Generated_Source\PSoC4/CyLib.c **** /*******************************************************************************
1438:.\Generated_Source\PSoC4/CyLib.c **** * Function Name: CySysTick_Start
1439:.\Generated_Source\PSoC4/CyLib.c **** ********************************************************************************
1440:.\Generated_Source\PSoC4/CyLib.c **** *
1441:.\Generated_Source\PSoC4/CyLib.c **** * Summary:
1442:.\Generated_Source\PSoC4/CyLib.c **** *  Starts the system timer (SysTick): configures SysTick to generate interrupt
1443:.\Generated_Source\PSoC4/CyLib.c **** *  every 1 ms and enables the interrupt.
1444:.\Generated_Source\PSoC4/CyLib.c **** *
1445:.\Generated_Source\PSoC4/CyLib.c **** * Parameters:
1446:.\Generated_Source\PSoC4/CyLib.c **** *  None
1447:.\Generated_Source\PSoC4/CyLib.c **** *
1448:.\Generated_Source\PSoC4/CyLib.c **** * Return:
1449:.\Generated_Source\PSoC4/CyLib.c **** *  None
1450:.\Generated_Source\PSoC4/CyLib.c **** *
ARM GAS  C:\Users\moxon\AppData\Local\Temp\ccM9MmHX.s 			page 53


1451:.\Generated_Source\PSoC4/CyLib.c **** * Side Effects:
1452:.\Generated_Source\PSoC4/CyLib.c **** *  Clears SysTick count flag if it was set.
1453:.\Generated_Source\PSoC4/CyLib.c **** *
1454:.\Generated_Source\PSoC4/CyLib.c **** *******************************************************************************/
1455:.\Generated_Source\PSoC4/CyLib.c **** void CySysTickStart(void)
1456:.\Generated_Source\PSoC4/CyLib.c **** {
1457:.\Generated_Source\PSoC4/CyLib.c ****     if (0u == CySysTickInitVar)
1458:.\Generated_Source\PSoC4/CyLib.c ****     {
1459:.\Generated_Source\PSoC4/CyLib.c ****         CySysTickInit();
1460:.\Generated_Source\PSoC4/CyLib.c ****         CySysTickInitVar = 1u;
1461:.\Generated_Source\PSoC4/CyLib.c ****     }
1462:.\Generated_Source\PSoC4/CyLib.c **** 
1463:.\Generated_Source\PSoC4/CyLib.c ****     CySysTickEnable();
1464:.\Generated_Source\PSoC4/CyLib.c **** }
1465:.\Generated_Source\PSoC4/CyLib.c **** 
1466:.\Generated_Source\PSoC4/CyLib.c **** 
1467:.\Generated_Source\PSoC4/CyLib.c **** /*******************************************************************************
1468:.\Generated_Source\PSoC4/CyLib.c **** * Function Name: CySysTickInit
1469:.\Generated_Source\PSoC4/CyLib.c **** ********************************************************************************
1470:.\Generated_Source\PSoC4/CyLib.c **** *
1471:.\Generated_Source\PSoC4/CyLib.c **** * Summary:
1472:.\Generated_Source\PSoC4/CyLib.c **** *  Sets CySysTickServiceCallbacks() as an ISR for the SysTick exception.
1473:.\Generated_Source\PSoC4/CyLib.c **** *  The clock source for the SysTick counter is set to the System Clock.
1474:.\Generated_Source\PSoC4/CyLib.c **** *  The SysTick reload value is configured for the timer to generate interrupt
1475:.\Generated_Source\PSoC4/CyLib.c **** *  every 1 ms. The System clock value is on the global variables cydelayFreqHz.
1476:.\Generated_Source\PSoC4/CyLib.c **** *  User is responsible for calling CyDelayFreq() function.
1477:.\Generated_Source\PSoC4/CyLib.c **** *  Initializes CySysTickCallbacks array.
1478:.\Generated_Source\PSoC4/CyLib.c **** *
1479:.\Generated_Source\PSoC4/CyLib.c **** * Parameters:
1480:.\Generated_Source\PSoC4/CyLib.c **** *  None
1481:.\Generated_Source\PSoC4/CyLib.c **** *
1482:.\Generated_Source\PSoC4/CyLib.c **** * Return:
1483:.\Generated_Source\PSoC4/CyLib.c **** *  None
1484:.\Generated_Source\PSoC4/CyLib.c **** *
1485:.\Generated_Source\PSoC4/CyLib.c **** * Side Effects:
1486:.\Generated_Source\PSoC4/CyLib.c **** *  Clears SysTick count flag if it was set
1487:.\Generated_Source\PSoC4/CyLib.c **** *
1488:.\Generated_Source\PSoC4/CyLib.c **** *******************************************************************************/
1489:.\Generated_Source\PSoC4/CyLib.c **** void CySysTickInit(void)
1490:.\Generated_Source\PSoC4/CyLib.c **** {
 1362              		.loc 1 1490 0
 1363              		.cfi_startproc
 1364              	.LVL99:
1491:.\Generated_Source\PSoC4/CyLib.c ****     uint32 i;
1492:.\Generated_Source\PSoC4/CyLib.c **** 
1493:.\Generated_Source\PSoC4/CyLib.c ****     for (i = 0u; i<CY_SYS_SYST_NUM_OF_CALLBACKS; i++)
1494:.\Generated_Source\PSoC4/CyLib.c ****     {
1495:.\Generated_Source\PSoC4/CyLib.c ****         CySysTickCallbacks[i] = (void *) 0;
 1365              		.loc 1 1495 0
 1366 0000 0C4B     		ldr	r3, .L104
1490:.\Generated_Source\PSoC4/CyLib.c **** {
 1367              		.loc 1 1490 0
 1368 0002 10B5     		push	{r4, lr}
 1369              		.cfi_def_cfa_offset 8
 1370              		.cfi_offset 4, -8
 1371              		.cfi_offset 14, -4
 1372              		.loc 1 1495 0
ARM GAS  C:\Users\moxon\AppData\Local\Temp\ccM9MmHX.s 			page 54


 1373 0004 0024     		mov	r4, #0
 1374 0006 1C60     		str	r4, [r3]
 1375              	.LVL100:
 1376 0008 DC60     		str	r4, [r3, #12]
 1377              	.LBB56:
 1378              	.LBB57:
1049:.\Generated_Source\PSoC4/CyLib.c ****     ramVectorTable[number] = address;
 1379              		.loc 1 1049 0
 1380 000a 0B4A     		ldr	r2, .L104+4
 1381              	.LBE57:
 1382              	.LBE56:
 1383              		.loc 1 1495 0
 1384 000c 5C60     		str	r4, [r3, #4]
 1385              	.LVL101:
 1386 000e 9C60     		str	r4, [r3, #8]
 1387              	.LVL102:
 1388 0010 1C61     		str	r4, [r3, #16]
 1389              	.LVL103:
 1390              	.LBB60:
 1391              	.LBB58:
1049:.\Generated_Source\PSoC4/CyLib.c ****     ramVectorTable[number] = address;
 1392              		.loc 1 1049 0
 1393 0012 0A4B     		ldr	r3, .L104+8
 1394              	.LVL104:
 1395              	.LBE58:
 1396              	.LBE60:
1496:.\Generated_Source\PSoC4/CyLib.c ****     }
1497:.\Generated_Source\PSoC4/CyLib.c **** 
1498:.\Generated_Source\PSoC4/CyLib.c ****     (void) CyIntSetSysVector(CY_INT_SYSTICK_IRQN, &CySysTickServiceCallbacks);
1499:.\Generated_Source\PSoC4/CyLib.c **** 
1500:.\Generated_Source\PSoC4/CyLib.c ****     #if(!CY_PSOC3 && !CY_PSOC4_4000 && !CY_PSOC4_4100 && !CY_PSOC4_4200)
1501:.\Generated_Source\PSoC4/CyLib.c ****         CySysTickSetClockSource(CY_SYS_SYST_CSR_CLK_SRC_SYSCLK);
1502:.\Generated_Source\PSoC4/CyLib.c ****     #endif /* (!CY_PSOC3 && !CY_PSOC4_4000 && !CY_PSOC4_4100 && !CY_PSOC4_4200) */
1503:.\Generated_Source\PSoC4/CyLib.c **** 
1504:.\Generated_Source\PSoC4/CyLib.c ****     CySysTickSetReload(cydelayFreqHz/1000u);
 1397              		.loc 1 1504 0
 1398 0014 FA21     		mov	r1, #250
 1399              	.LBB61:
 1400              	.LBB59:
1049:.\Generated_Source\PSoC4/CyLib.c ****     ramVectorTable[number] = address;
 1401              		.loc 1 1049 0
 1402 0016 1A60     		str	r2, [r3]
 1403              	.LVL105:
 1404              	.LBE59:
 1405              	.LBE61:
 1406              		.loc 1 1504 0
 1407 0018 094B     		ldr	r3, .L104+12
 1408 001a 8900     		lsl	r1, r1, #2
 1409 001c D868     		ldr	r0, [r3, #12]
 1410 001e FFF7FEFF 		bl	__aeabi_uidiv
 1411              	.LVL106:
 1412              	.LBB62:
 1413              	.LBB63:
1505:.\Generated_Source\PSoC4/CyLib.c ****     CySysTickClear();
1506:.\Generated_Source\PSoC4/CyLib.c ****     CyIntEnable(CY_INT_SYSTICK_IRQN);
1507:.\Generated_Source\PSoC4/CyLib.c **** }
1508:.\Generated_Source\PSoC4/CyLib.c **** 
ARM GAS  C:\Users\moxon\AppData\Local\Temp\ccM9MmHX.s 			page 55


1509:.\Generated_Source\PSoC4/CyLib.c **** 
1510:.\Generated_Source\PSoC4/CyLib.c **** /*******************************************************************************
1511:.\Generated_Source\PSoC4/CyLib.c **** * Function Name: CySysTickEnable
1512:.\Generated_Source\PSoC4/CyLib.c **** ********************************************************************************
1513:.\Generated_Source\PSoC4/CyLib.c **** *
1514:.\Generated_Source\PSoC4/CyLib.c **** * Summary:
1515:.\Generated_Source\PSoC4/CyLib.c **** *  Enables the SysTick timer and its interrupt.
1516:.\Generated_Source\PSoC4/CyLib.c **** *
1517:.\Generated_Source\PSoC4/CyLib.c **** * Parameters:
1518:.\Generated_Source\PSoC4/CyLib.c **** *  None
1519:.\Generated_Source\PSoC4/CyLib.c **** *
1520:.\Generated_Source\PSoC4/CyLib.c **** * Return:
1521:.\Generated_Source\PSoC4/CyLib.c **** *  None
1522:.\Generated_Source\PSoC4/CyLib.c **** *
1523:.\Generated_Source\PSoC4/CyLib.c **** * Side Effects:
1524:.\Generated_Source\PSoC4/CyLib.c **** *  Clears SysTick count flag if it was set
1525:.\Generated_Source\PSoC4/CyLib.c **** *
1526:.\Generated_Source\PSoC4/CyLib.c **** *******************************************************************************/
1527:.\Generated_Source\PSoC4/CyLib.c **** void CySysTickEnable(void)
1528:.\Generated_Source\PSoC4/CyLib.c **** {
1529:.\Generated_Source\PSoC4/CyLib.c ****     CySysTickEnableInterrupt();
1530:.\Generated_Source\PSoC4/CyLib.c ****     CY_SYS_SYST_CSR_REG |= CY_SYS_SYST_CSR_ENABLE;
1531:.\Generated_Source\PSoC4/CyLib.c **** }
1532:.\Generated_Source\PSoC4/CyLib.c **** 
1533:.\Generated_Source\PSoC4/CyLib.c **** 
1534:.\Generated_Source\PSoC4/CyLib.c **** /*******************************************************************************
1535:.\Generated_Source\PSoC4/CyLib.c **** * Function Name: CySysTickStop
1536:.\Generated_Source\PSoC4/CyLib.c **** ********************************************************************************
1537:.\Generated_Source\PSoC4/CyLib.c **** *
1538:.\Generated_Source\PSoC4/CyLib.c **** * Summary:
1539:.\Generated_Source\PSoC4/CyLib.c **** *  Stops the system timer (SysTick).
1540:.\Generated_Source\PSoC4/CyLib.c **** *
1541:.\Generated_Source\PSoC4/CyLib.c **** * Parameters:
1542:.\Generated_Source\PSoC4/CyLib.c **** *  None
1543:.\Generated_Source\PSoC4/CyLib.c **** *
1544:.\Generated_Source\PSoC4/CyLib.c **** * Return:
1545:.\Generated_Source\PSoC4/CyLib.c **** *  None
1546:.\Generated_Source\PSoC4/CyLib.c **** *
1547:.\Generated_Source\PSoC4/CyLib.c **** * Side Effects:
1548:.\Generated_Source\PSoC4/CyLib.c **** *  Clears SysTick count flag if it was set
1549:.\Generated_Source\PSoC4/CyLib.c **** *
1550:.\Generated_Source\PSoC4/CyLib.c **** *******************************************************************************/
1551:.\Generated_Source\PSoC4/CyLib.c **** void CySysTickStop(void)
1552:.\Generated_Source\PSoC4/CyLib.c **** {
1553:.\Generated_Source\PSoC4/CyLib.c ****     CY_SYS_SYST_CSR_REG &= ((uint32) ~(CY_SYS_SYST_CSR_ENABLE));
1554:.\Generated_Source\PSoC4/CyLib.c **** }
1555:.\Generated_Source\PSoC4/CyLib.c **** 
1556:.\Generated_Source\PSoC4/CyLib.c **** 
1557:.\Generated_Source\PSoC4/CyLib.c **** /*******************************************************************************
1558:.\Generated_Source\PSoC4/CyLib.c **** * Function Name: CySysTickEnableInterrupt
1559:.\Generated_Source\PSoC4/CyLib.c **** ********************************************************************************
1560:.\Generated_Source\PSoC4/CyLib.c **** *
1561:.\Generated_Source\PSoC4/CyLib.c **** * Summary:
1562:.\Generated_Source\PSoC4/CyLib.c **** *  Enables the SysTick interrupt.
1563:.\Generated_Source\PSoC4/CyLib.c **** *
1564:.\Generated_Source\PSoC4/CyLib.c **** * Parameters:
1565:.\Generated_Source\PSoC4/CyLib.c **** *  None
ARM GAS  C:\Users\moxon\AppData\Local\Temp\ccM9MmHX.s 			page 56


1566:.\Generated_Source\PSoC4/CyLib.c **** *
1567:.\Generated_Source\PSoC4/CyLib.c **** * Return:
1568:.\Generated_Source\PSoC4/CyLib.c **** *  None
1569:.\Generated_Source\PSoC4/CyLib.c **** *
1570:.\Generated_Source\PSoC4/CyLib.c **** * Side Effects:
1571:.\Generated_Source\PSoC4/CyLib.c **** *  Clears SysTick count flag if it was set
1572:.\Generated_Source\PSoC4/CyLib.c **** *
1573:.\Generated_Source\PSoC4/CyLib.c **** *******************************************************************************/
1574:.\Generated_Source\PSoC4/CyLib.c **** void CySysTickEnableInterrupt(void)
1575:.\Generated_Source\PSoC4/CyLib.c **** {
1576:.\Generated_Source\PSoC4/CyLib.c ****     CY_SYS_SYST_CSR_REG |= CY_SYS_SYST_CSR_ENABLE_INT;
1577:.\Generated_Source\PSoC4/CyLib.c **** }
1578:.\Generated_Source\PSoC4/CyLib.c **** 
1579:.\Generated_Source\PSoC4/CyLib.c **** 
1580:.\Generated_Source\PSoC4/CyLib.c **** /*******************************************************************************
1581:.\Generated_Source\PSoC4/CyLib.c **** * Function Name: CySysTickDisableInterrupt
1582:.\Generated_Source\PSoC4/CyLib.c **** ********************************************************************************
1583:.\Generated_Source\PSoC4/CyLib.c **** *
1584:.\Generated_Source\PSoC4/CyLib.c **** * Summary:
1585:.\Generated_Source\PSoC4/CyLib.c **** *  Disables the SysTick interrupt.
1586:.\Generated_Source\PSoC4/CyLib.c **** *
1587:.\Generated_Source\PSoC4/CyLib.c **** * Parameters:
1588:.\Generated_Source\PSoC4/CyLib.c **** *  None
1589:.\Generated_Source\PSoC4/CyLib.c **** *
1590:.\Generated_Source\PSoC4/CyLib.c **** * Return:
1591:.\Generated_Source\PSoC4/CyLib.c **** *  None
1592:.\Generated_Source\PSoC4/CyLib.c **** *
1593:.\Generated_Source\PSoC4/CyLib.c **** * Side Effects:
1594:.\Generated_Source\PSoC4/CyLib.c **** *  Clears SysTick count flag if it was set
1595:.\Generated_Source\PSoC4/CyLib.c **** *
1596:.\Generated_Source\PSoC4/CyLib.c **** *******************************************************************************/
1597:.\Generated_Source\PSoC4/CyLib.c **** void CySysTickDisableInterrupt(void)
1598:.\Generated_Source\PSoC4/CyLib.c **** {
1599:.\Generated_Source\PSoC4/CyLib.c ****     CY_SYS_SYST_CSR_REG &= ((uint32) ~(CY_SYS_SYST_CSR_ENABLE_INT));
1600:.\Generated_Source\PSoC4/CyLib.c **** }
1601:.\Generated_Source\PSoC4/CyLib.c **** 
1602:.\Generated_Source\PSoC4/CyLib.c **** 
1603:.\Generated_Source\PSoC4/CyLib.c **** /*******************************************************************************
1604:.\Generated_Source\PSoC4/CyLib.c **** * Function Name: CySysTickSetReload
1605:.\Generated_Source\PSoC4/CyLib.c **** ********************************************************************************
1606:.\Generated_Source\PSoC4/CyLib.c **** *
1607:.\Generated_Source\PSoC4/CyLib.c **** * Summary:
1608:.\Generated_Source\PSoC4/CyLib.c **** *  Sets value the counter is set to on startup and after it reaches zero. This
1609:.\Generated_Source\PSoC4/CyLib.c **** *  function do not change or reset current sysTick counter value, so it should
1610:.\Generated_Source\PSoC4/CyLib.c **** *  be cleared using CySysTickClear() API.
1611:.\Generated_Source\PSoC4/CyLib.c **** *
1612:.\Generated_Source\PSoC4/CyLib.c **** * Parameters:
1613:.\Generated_Source\PSoC4/CyLib.c **** *  value: Valid range [0x0-0x00FFFFFF]. Counter reset value
1614:.\Generated_Source\PSoC4/CyLib.c **** *
1615:.\Generated_Source\PSoC4/CyLib.c **** * Return:
1616:.\Generated_Source\PSoC4/CyLib.c **** *  None
1617:.\Generated_Source\PSoC4/CyLib.c **** *
1618:.\Generated_Source\PSoC4/CyLib.c **** *******************************************************************************/
1619:.\Generated_Source\PSoC4/CyLib.c **** void CySysTickSetReload(uint32 value)
1620:.\Generated_Source\PSoC4/CyLib.c **** {
1621:.\Generated_Source\PSoC4/CyLib.c ****     CY_SYS_SYST_RVR_REG = (value & CY_SYS_SYST_RVR_CNT_MASK);
 1414              		.loc 1 1621 0
ARM GAS  C:\Users\moxon\AppData\Local\Temp\ccM9MmHX.s 			page 57


 1415 0022 084B     		ldr	r3, .L104+16
 1416              	.LBE63:
 1417              	.LBE62:
 1418              	.LBB65:
 1419              	.LBB66:
1219:.\Generated_Source\PSoC4/CyLib.c ****     CY_INT_ENABLE_REG = ((uint32) 0x01u << (CY_INT_ENABLE_RANGE_MASK & number));
 1420              		.loc 1 1219 0
 1421 0024 8022     		mov	r2, #128
 1422              	.LBE66:
 1423              	.LBE65:
 1424              	.LBB70:
 1425              	.LBB64:
 1426              		.loc 1 1621 0
 1427 0026 1860     		str	r0, [r3]
 1428              	.LBE64:
 1429              	.LBE70:
 1430              	.LBB71:
 1431              	.LBB72:
1622:.\Generated_Source\PSoC4/CyLib.c **** }
1623:.\Generated_Source\PSoC4/CyLib.c **** 
1624:.\Generated_Source\PSoC4/CyLib.c **** 
1625:.\Generated_Source\PSoC4/CyLib.c **** /*******************************************************************************
1626:.\Generated_Source\PSoC4/CyLib.c **** * Function Name: CySysTickGetReload
1627:.\Generated_Source\PSoC4/CyLib.c **** ********************************************************************************
1628:.\Generated_Source\PSoC4/CyLib.c **** *
1629:.\Generated_Source\PSoC4/CyLib.c **** * Summary:
1630:.\Generated_Source\PSoC4/CyLib.c **** *  Sets value the counter is set to on startup and after it reaches zero.
1631:.\Generated_Source\PSoC4/CyLib.c **** *
1632:.\Generated_Source\PSoC4/CyLib.c **** * Parameters:
1633:.\Generated_Source\PSoC4/CyLib.c **** *  None
1634:.\Generated_Source\PSoC4/CyLib.c **** *
1635:.\Generated_Source\PSoC4/CyLib.c **** * Return:
1636:.\Generated_Source\PSoC4/CyLib.c **** *  Counter reset value.
1637:.\Generated_Source\PSoC4/CyLib.c **** *
1638:.\Generated_Source\PSoC4/CyLib.c **** *******************************************************************************/
1639:.\Generated_Source\PSoC4/CyLib.c **** uint32 CySysTickGetReload(void)
1640:.\Generated_Source\PSoC4/CyLib.c **** {
1641:.\Generated_Source\PSoC4/CyLib.c ****     return(CY_SYS_SYST_RVR_REG & CY_SYS_SYST_RVR_CNT_MASK);
1642:.\Generated_Source\PSoC4/CyLib.c **** }
1643:.\Generated_Source\PSoC4/CyLib.c **** 
1644:.\Generated_Source\PSoC4/CyLib.c **** 
1645:.\Generated_Source\PSoC4/CyLib.c **** /*******************************************************************************
1646:.\Generated_Source\PSoC4/CyLib.c **** * Function Name: CySysTickGetValue
1647:.\Generated_Source\PSoC4/CyLib.c **** ********************************************************************************
1648:.\Generated_Source\PSoC4/CyLib.c **** *
1649:.\Generated_Source\PSoC4/CyLib.c **** * Summary:
1650:.\Generated_Source\PSoC4/CyLib.c **** *  Gets current SysTick counter value.
1651:.\Generated_Source\PSoC4/CyLib.c **** *
1652:.\Generated_Source\PSoC4/CyLib.c **** * Parameters:
1653:.\Generated_Source\PSoC4/CyLib.c **** *  None
1654:.\Generated_Source\PSoC4/CyLib.c **** *
1655:.\Generated_Source\PSoC4/CyLib.c **** * Return:
1656:.\Generated_Source\PSoC4/CyLib.c **** *  Current SysTick counter value
1657:.\Generated_Source\PSoC4/CyLib.c **** *
1658:.\Generated_Source\PSoC4/CyLib.c **** *******************************************************************************/
1659:.\Generated_Source\PSoC4/CyLib.c **** uint32 CySysTickGetValue(void)
1660:.\Generated_Source\PSoC4/CyLib.c **** {
ARM GAS  C:\Users\moxon\AppData\Local\Temp\ccM9MmHX.s 			page 58


1661:.\Generated_Source\PSoC4/CyLib.c ****     return(CY_SYS_SYST_CVR_REG & CY_SYS_SYST_CVR_CNT_MASK);
1662:.\Generated_Source\PSoC4/CyLib.c **** }
1663:.\Generated_Source\PSoC4/CyLib.c **** 
1664:.\Generated_Source\PSoC4/CyLib.c **** 
1665:.\Generated_Source\PSoC4/CyLib.c **** #if(!CY_PSOC3 && !CY_PSOC4_4000 && !CY_PSOC4_4100 && !CY_PSOC4_4200)
1666:.\Generated_Source\PSoC4/CyLib.c ****     /*******************************************************************************
1667:.\Generated_Source\PSoC4/CyLib.c ****     * Function Name: CySysTickSetClockSource
1668:.\Generated_Source\PSoC4/CyLib.c ****     ********************************************************************************
1669:.\Generated_Source\PSoC4/CyLib.c ****     *
1670:.\Generated_Source\PSoC4/CyLib.c ****     * Summary:
1671:.\Generated_Source\PSoC4/CyLib.c ****     *  Sets the clock source for the SysTick counter.
1672:.\Generated_Source\PSoC4/CyLib.c ****     *
1673:.\Generated_Source\PSoC4/CyLib.c ****     * Parameters:
1674:.\Generated_Source\PSoC4/CyLib.c ****     *  clockSource: Clock source for SysTick counter
1675:.\Generated_Source\PSoC4/CyLib.c ****     *         Define                     Clock Source
1676:.\Generated_Source\PSoC4/CyLib.c ****     *   CY_SYS_SYST_CSR_CLK_SRC_SYSCLK     SysTick is clocked by CPU clock.
1677:.\Generated_Source\PSoC4/CyLib.c ****     *   CY_SYS_SYST_CSR_CLK_SRC_LFCLK      SysTick is clocked by the low frequency
1678:.\Generated_Source\PSoC4/CyLib.c ****     *                                      clock. (ILO 100 KHz for PSoC 5LP, and
1679:.\Generated_Source\PSoC4/CyLib.c ****     *                                      LFCLK for PSoC 4).
1680:.\Generated_Source\PSoC4/CyLib.c ****     *
1681:.\Generated_Source\PSoC4/CyLib.c ****     * Return:
1682:.\Generated_Source\PSoC4/CyLib.c ****     *  None
1683:.\Generated_Source\PSoC4/CyLib.c ****     *
1684:.\Generated_Source\PSoC4/CyLib.c ****     * Side Effects:
1685:.\Generated_Source\PSoC4/CyLib.c ****     *  Clears SysTick count flag if it was set. If clock source is not ready this
1686:.\Generated_Source\PSoC4/CyLib.c ****     *  function call will have no effect. After changing clock source to the low
1687:.\Generated_Source\PSoC4/CyLib.c ****     *  frequency clock the counter and reload register values will remain unchanged
1688:.\Generated_Source\PSoC4/CyLib.c ****     *  so time to the interrupt will be significantly bigger and vice versa.
1689:.\Generated_Source\PSoC4/CyLib.c ****     *
1690:.\Generated_Source\PSoC4/CyLib.c ****     *******************************************************************************/
1691:.\Generated_Source\PSoC4/CyLib.c ****     void CySysTickSetClockSource(uint32 clockSource)
1692:.\Generated_Source\PSoC4/CyLib.c ****     {
1693:.\Generated_Source\PSoC4/CyLib.c ****         if (clockSource == CY_SYS_SYST_CSR_CLK_SRC_SYSCLK)
1694:.\Generated_Source\PSoC4/CyLib.c ****         {
1695:.\Generated_Source\PSoC4/CyLib.c ****             CY_SYS_SYST_CSR_REG |= (uint32)(CY_SYS_SYST_CSR_CLK_SRC_SYSCLK << CY_SYS_SYST_CSR_CLK_S
1696:.\Generated_Source\PSoC4/CyLib.c ****         }
1697:.\Generated_Source\PSoC4/CyLib.c ****         else
1698:.\Generated_Source\PSoC4/CyLib.c ****         {
1699:.\Generated_Source\PSoC4/CyLib.c ****             CY_SYS_SYST_CSR_REG &= ((uint32) ~((uint32)(CY_SYS_SYST_CSR_CLK_SRC_SYSCLK << CY_SYS_SY
1700:.\Generated_Source\PSoC4/CyLib.c ****         }
1701:.\Generated_Source\PSoC4/CyLib.c ****     }
1702:.\Generated_Source\PSoC4/CyLib.c **** #endif /* (!CY_PSOC3 && !CY_PSOC4_4000 && !CY_PSOC4_4100 && !CY_PSOC4_4200) */
1703:.\Generated_Source\PSoC4/CyLib.c **** 
1704:.\Generated_Source\PSoC4/CyLib.c **** 
1705:.\Generated_Source\PSoC4/CyLib.c **** /*******************************************************************************
1706:.\Generated_Source\PSoC4/CyLib.c **** * Function Name: CySysTickGetCountFlag
1707:.\Generated_Source\PSoC4/CyLib.c **** ********************************************************************************
1708:.\Generated_Source\PSoC4/CyLib.c **** *
1709:.\Generated_Source\PSoC4/CyLib.c **** * Summary:
1710:.\Generated_Source\PSoC4/CyLib.c **** *  The count flag is set once SysTick counter reaches zero.
1711:.\Generated_Source\PSoC4/CyLib.c **** *   The flag cleared on read.
1712:.\Generated_Source\PSoC4/CyLib.c **** *
1713:.\Generated_Source\PSoC4/CyLib.c **** * Parameters:
1714:.\Generated_Source\PSoC4/CyLib.c **** *  None
1715:.\Generated_Source\PSoC4/CyLib.c **** *
1716:.\Generated_Source\PSoC4/CyLib.c **** * Return:
1717:.\Generated_Source\PSoC4/CyLib.c ****     *  Returns non-zero value if flag is set, otherwise zero is returned.
ARM GAS  C:\Users\moxon\AppData\Local\Temp\ccM9MmHX.s 			page 59


1718:.\Generated_Source\PSoC4/CyLib.c **** *
1719:.\Generated_Source\PSoC4/CyLib.c **** *
1720:.\Generated_Source\PSoC4/CyLib.c **** * Side Effects:
1721:.\Generated_Source\PSoC4/CyLib.c **** *  Clears SysTick count flag if it was set.
1722:.\Generated_Source\PSoC4/CyLib.c **** *
1723:.\Generated_Source\PSoC4/CyLib.c **** *******************************************************************************/
1724:.\Generated_Source\PSoC4/CyLib.c **** uint32 CySysTickGetCountFlag(void)
1725:.\Generated_Source\PSoC4/CyLib.c **** {
1726:.\Generated_Source\PSoC4/CyLib.c ****     return ((CY_SYS_SYST_CSR_REG>>CY_SYS_SYST_CSR_COUNTFLAG_SHIFT) & 0x01u);
1727:.\Generated_Source\PSoC4/CyLib.c **** }
1728:.\Generated_Source\PSoC4/CyLib.c **** 
1729:.\Generated_Source\PSoC4/CyLib.c **** 
1730:.\Generated_Source\PSoC4/CyLib.c **** /*******************************************************************************
1731:.\Generated_Source\PSoC4/CyLib.c **** * Function Name: CySysTickClear
1732:.\Generated_Source\PSoC4/CyLib.c **** ********************************************************************************
1733:.\Generated_Source\PSoC4/CyLib.c **** *
1734:.\Generated_Source\PSoC4/CyLib.c **** * Summary:
1735:.\Generated_Source\PSoC4/CyLib.c **** *  Clears the SysTick counter for well-defined startup.
1736:.\Generated_Source\PSoC4/CyLib.c **** *
1737:.\Generated_Source\PSoC4/CyLib.c **** * Parameters:
1738:.\Generated_Source\PSoC4/CyLib.c **** *  None
1739:.\Generated_Source\PSoC4/CyLib.c **** *
1740:.\Generated_Source\PSoC4/CyLib.c **** * Return:
1741:.\Generated_Source\PSoC4/CyLib.c **** *  None
1742:.\Generated_Source\PSoC4/CyLib.c **** *
1743:.\Generated_Source\PSoC4/CyLib.c **** *******************************************************************************/
1744:.\Generated_Source\PSoC4/CyLib.c **** void CySysTickClear(void)
1745:.\Generated_Source\PSoC4/CyLib.c **** {
1746:.\Generated_Source\PSoC4/CyLib.c ****     CY_SYS_SYST_CVR_REG = 0u;
 1432              		.loc 1 1746 0
 1433 0028 074B     		ldr	r3, .L104+20
 1434              	.LBE72:
 1435              	.LBE71:
 1436              	.LBB74:
 1437              	.LBB67:
1219:.\Generated_Source\PSoC4/CyLib.c ****     CY_INT_ENABLE_REG = ((uint32) 0x01u << (CY_INT_ENABLE_RANGE_MASK & number));
 1438              		.loc 1 1219 0
 1439 002a 1202     		lsl	r2, r2, #8
 1440              	.LBE67:
 1441              	.LBE74:
 1442              	.LBB75:
 1443              	.LBB73:
 1444              		.loc 1 1746 0
 1445 002c 1C60     		str	r4, [r3]
 1446              	.LVL107:
 1447              	.LBE73:
 1448              	.LBE75:
 1449              	.LBB76:
 1450              	.LBB68:
1219:.\Generated_Source\PSoC4/CyLib.c ****     CY_INT_ENABLE_REG = ((uint32) 0x01u << (CY_INT_ENABLE_RANGE_MASK & number));
 1451              		.loc 1 1219 0
 1452 002e 074B     		ldr	r3, .L104+24
 1453              	.LBE68:
 1454              	.LBE76:
1507:.\Generated_Source\PSoC4/CyLib.c **** }
 1455              		.loc 1 1507 0
 1456              		@ sp needed
ARM GAS  C:\Users\moxon\AppData\Local\Temp\ccM9MmHX.s 			page 60


 1457              	.LBB77:
 1458              	.LBB69:
1219:.\Generated_Source\PSoC4/CyLib.c ****     CY_INT_ENABLE_REG = ((uint32) 0x01u << (CY_INT_ENABLE_RANGE_MASK & number));
 1459              		.loc 1 1219 0
 1460 0030 1A60     		str	r2, [r3]
 1461              	.LBE69:
 1462              	.LBE77:
1507:.\Generated_Source\PSoC4/CyLib.c **** }
 1463              		.loc 1 1507 0
 1464 0032 10BD     		pop	{r4, pc}
 1465              	.L105:
 1466              		.align	2
 1467              	.L104:
 1468 0034 00000000 		.word	.LANCHOR2
 1469 0038 00000000 		.word	CySysTickServiceCallbacks
 1470 003c 3C000020 		.word	536870972
 1471 0040 00000000 		.word	.LANCHOR0
 1472 0044 14E000E0 		.word	-536813548
 1473 0048 18E000E0 		.word	-536813544
 1474 004c 00E100E0 		.word	-536813312
 1475              		.cfi_endproc
 1476              	.LFE29:
 1477              		.size	CySysTickInit, .-CySysTickInit
 1478              		.section	.text.CySysTickStop,"ax",%progbits
 1479              		.align	1
 1480              		.global	CySysTickStop
 1481              		.code	16
 1482              		.thumb_func
 1483              		.type	CySysTickStop, %function
 1484              	CySysTickStop:
 1485              	.LFB31:
1552:.\Generated_Source\PSoC4/CyLib.c **** {
 1486              		.loc 1 1552 0
 1487              		.cfi_startproc
1553:.\Generated_Source\PSoC4/CyLib.c ****     CY_SYS_SYST_CSR_REG &= ((uint32) ~(CY_SYS_SYST_CSR_ENABLE));
 1488              		.loc 1 1553 0
 1489 0000 024B     		ldr	r3, .L107
 1490 0002 0121     		mov	r1, #1
 1491 0004 1A68     		ldr	r2, [r3]
1554:.\Generated_Source\PSoC4/CyLib.c **** }
 1492              		.loc 1 1554 0
 1493              		@ sp needed
1553:.\Generated_Source\PSoC4/CyLib.c ****     CY_SYS_SYST_CSR_REG &= ((uint32) ~(CY_SYS_SYST_CSR_ENABLE));
 1494              		.loc 1 1553 0
 1495 0006 8A43     		bic	r2, r1
 1496 0008 1A60     		str	r2, [r3]
1554:.\Generated_Source\PSoC4/CyLib.c **** }
 1497              		.loc 1 1554 0
 1498 000a 7047     		bx	lr
 1499              	.L108:
 1500              		.align	2
 1501              	.L107:
 1502 000c 10E000E0 		.word	-536813552
 1503              		.cfi_endproc
 1504              	.LFE31:
 1505              		.size	CySysTickStop, .-CySysTickStop
 1506              		.section	.text.CySysTickEnableInterrupt,"ax",%progbits
ARM GAS  C:\Users\moxon\AppData\Local\Temp\ccM9MmHX.s 			page 61


 1507              		.align	1
 1508              		.global	CySysTickEnableInterrupt
 1509              		.code	16
 1510              		.thumb_func
 1511              		.type	CySysTickEnableInterrupt, %function
 1512              	CySysTickEnableInterrupt:
 1513              	.LFB32:
1575:.\Generated_Source\PSoC4/CyLib.c **** {
 1514              		.loc 1 1575 0
 1515              		.cfi_startproc
1576:.\Generated_Source\PSoC4/CyLib.c ****     CY_SYS_SYST_CSR_REG |= CY_SYS_SYST_CSR_ENABLE_INT;
 1516              		.loc 1 1576 0
 1517 0000 024B     		ldr	r3, .L110
 1518 0002 0221     		mov	r1, #2
 1519 0004 1A68     		ldr	r2, [r3]
1577:.\Generated_Source\PSoC4/CyLib.c **** }
 1520              		.loc 1 1577 0
 1521              		@ sp needed
1576:.\Generated_Source\PSoC4/CyLib.c ****     CY_SYS_SYST_CSR_REG |= CY_SYS_SYST_CSR_ENABLE_INT;
 1522              		.loc 1 1576 0
 1523 0006 0A43     		orr	r2, r1
 1524 0008 1A60     		str	r2, [r3]
1577:.\Generated_Source\PSoC4/CyLib.c **** }
 1525              		.loc 1 1577 0
 1526 000a 7047     		bx	lr
 1527              	.L111:
 1528              		.align	2
 1529              	.L110:
 1530 000c 10E000E0 		.word	-536813552
 1531              		.cfi_endproc
 1532              	.LFE32:
 1533              		.size	CySysTickEnableInterrupt, .-CySysTickEnableInterrupt
 1534              		.section	.text.CySysTickEnable,"ax",%progbits
 1535              		.align	1
 1536              		.global	CySysTickEnable
 1537              		.code	16
 1538              		.thumb_func
 1539              		.type	CySysTickEnable, %function
 1540              	CySysTickEnable:
 1541              	.LFB30:
1528:.\Generated_Source\PSoC4/CyLib.c **** {
 1542              		.loc 1 1528 0
 1543              		.cfi_startproc
 1544 0000 08B5     		push	{r3, lr}
 1545              		.cfi_def_cfa_offset 8
 1546              		.cfi_offset 3, -8
 1547              		.cfi_offset 14, -4
1529:.\Generated_Source\PSoC4/CyLib.c ****     CySysTickEnableInterrupt();
 1548              		.loc 1 1529 0
 1549 0002 FFF7FEFF 		bl	CySysTickEnableInterrupt
 1550              	.LVL108:
1530:.\Generated_Source\PSoC4/CyLib.c ****     CY_SYS_SYST_CSR_REG |= CY_SYS_SYST_CSR_ENABLE;
 1551              		.loc 1 1530 0
 1552 0006 034B     		ldr	r3, .L113
 1553 0008 0121     		mov	r1, #1
 1554 000a 1A68     		ldr	r2, [r3]
1531:.\Generated_Source\PSoC4/CyLib.c **** }
ARM GAS  C:\Users\moxon\AppData\Local\Temp\ccM9MmHX.s 			page 62


 1555              		.loc 1 1531 0
 1556              		@ sp needed
1530:.\Generated_Source\PSoC4/CyLib.c ****     CY_SYS_SYST_CSR_REG |= CY_SYS_SYST_CSR_ENABLE;
 1557              		.loc 1 1530 0
 1558 000c 0A43     		orr	r2, r1
 1559 000e 1A60     		str	r2, [r3]
1531:.\Generated_Source\PSoC4/CyLib.c **** }
 1560              		.loc 1 1531 0
 1561 0010 08BD     		pop	{r3, pc}
 1562              	.L114:
 1563 0012 C046     		.align	2
 1564              	.L113:
 1565 0014 10E000E0 		.word	-536813552
 1566              		.cfi_endproc
 1567              	.LFE30:
 1568              		.size	CySysTickEnable, .-CySysTickEnable
 1569              		.section	.text.CySysTickStart,"ax",%progbits
 1570              		.align	1
 1571              		.global	CySysTickStart
 1572              		.code	16
 1573              		.thumb_func
 1574              		.type	CySysTickStart, %function
 1575              	CySysTickStart:
 1576              	.LFB28:
1456:.\Generated_Source\PSoC4/CyLib.c **** {
 1577              		.loc 1 1456 0
 1578              		.cfi_startproc
 1579 0000 10B5     		push	{r4, lr}
 1580              		.cfi_def_cfa_offset 8
 1581              		.cfi_offset 4, -8
 1582              		.cfi_offset 14, -4
1457:.\Generated_Source\PSoC4/CyLib.c ****     if (0u == CySysTickInitVar)
 1583              		.loc 1 1457 0
 1584 0002 054C     		ldr	r4, .L117
 1585 0004 6369     		ldr	r3, [r4, #20]
 1586 0006 002B     		cmp	r3, #0
 1587 0008 03D1     		bne	.L116
1459:.\Generated_Source\PSoC4/CyLib.c ****         CySysTickInit();
 1588              		.loc 1 1459 0
 1589 000a FFF7FEFF 		bl	CySysTickInit
 1590              	.LVL109:
1460:.\Generated_Source\PSoC4/CyLib.c ****         CySysTickInitVar = 1u;
 1591              		.loc 1 1460 0
 1592 000e 0123     		mov	r3, #1
 1593 0010 6361     		str	r3, [r4, #20]
 1594              	.L116:
1463:.\Generated_Source\PSoC4/CyLib.c ****     CySysTickEnable();
 1595              		.loc 1 1463 0
 1596 0012 FFF7FEFF 		bl	CySysTickEnable
 1597              	.LVL110:
1464:.\Generated_Source\PSoC4/CyLib.c **** }
 1598              		.loc 1 1464 0
 1599              		@ sp needed
 1600 0016 10BD     		pop	{r4, pc}
 1601              	.L118:
 1602              		.align	2
 1603              	.L117:
ARM GAS  C:\Users\moxon\AppData\Local\Temp\ccM9MmHX.s 			page 63


 1604 0018 00000000 		.word	.LANCHOR2
 1605              		.cfi_endproc
 1606              	.LFE28:
 1607              		.size	CySysTickStart, .-CySysTickStart
 1608              		.section	.text.CySysTickDisableInterrupt,"ax",%progbits
 1609              		.align	1
 1610              		.global	CySysTickDisableInterrupt
 1611              		.code	16
 1612              		.thumb_func
 1613              		.type	CySysTickDisableInterrupt, %function
 1614              	CySysTickDisableInterrupt:
 1615              	.LFB33:
1598:.\Generated_Source\PSoC4/CyLib.c **** {
 1616              		.loc 1 1598 0
 1617              		.cfi_startproc
1599:.\Generated_Source\PSoC4/CyLib.c ****     CY_SYS_SYST_CSR_REG &= ((uint32) ~(CY_SYS_SYST_CSR_ENABLE_INT));
 1618              		.loc 1 1599 0
 1619 0000 024B     		ldr	r3, .L120
 1620 0002 0221     		mov	r1, #2
 1621 0004 1A68     		ldr	r2, [r3]
1600:.\Generated_Source\PSoC4/CyLib.c **** }
 1622              		.loc 1 1600 0
 1623              		@ sp needed
1599:.\Generated_Source\PSoC4/CyLib.c ****     CY_SYS_SYST_CSR_REG &= ((uint32) ~(CY_SYS_SYST_CSR_ENABLE_INT));
 1624              		.loc 1 1599 0
 1625 0006 8A43     		bic	r2, r1
 1626 0008 1A60     		str	r2, [r3]
1600:.\Generated_Source\PSoC4/CyLib.c **** }
 1627              		.loc 1 1600 0
 1628 000a 7047     		bx	lr
 1629              	.L121:
 1630              		.align	2
 1631              	.L120:
 1632 000c 10E000E0 		.word	-536813552
 1633              		.cfi_endproc
 1634              	.LFE33:
 1635              		.size	CySysTickDisableInterrupt, .-CySysTickDisableInterrupt
 1636              		.section	.text.CySysTickSetReload,"ax",%progbits
 1637              		.align	1
 1638              		.global	CySysTickSetReload
 1639              		.code	16
 1640              		.thumb_func
 1641              		.type	CySysTickSetReload, %function
 1642              	CySysTickSetReload:
 1643              	.LFB34:
1620:.\Generated_Source\PSoC4/CyLib.c **** {
 1644              		.loc 1 1620 0
 1645              		.cfi_startproc
 1646              	.LVL111:
1621:.\Generated_Source\PSoC4/CyLib.c ****     CY_SYS_SYST_RVR_REG = (value & CY_SYS_SYST_RVR_CNT_MASK);
 1647              		.loc 1 1621 0
 1648 0000 024B     		ldr	r3, .L123
 1649 0002 0002     		lsl	r0, r0, #8
 1650              	.LVL112:
 1651 0004 000A     		lsr	r0, r0, #8
 1652 0006 1860     		str	r0, [r3]
1622:.\Generated_Source\PSoC4/CyLib.c **** }
ARM GAS  C:\Users\moxon\AppData\Local\Temp\ccM9MmHX.s 			page 64


 1653              		.loc 1 1622 0
 1654              		@ sp needed
 1655 0008 7047     		bx	lr
 1656              	.L124:
 1657 000a C046     		.align	2
 1658              	.L123:
 1659 000c 14E000E0 		.word	-536813548
 1660              		.cfi_endproc
 1661              	.LFE34:
 1662              		.size	CySysTickSetReload, .-CySysTickSetReload
 1663              		.section	.text.CySysTickGetReload,"ax",%progbits
 1664              		.align	1
 1665              		.global	CySysTickGetReload
 1666              		.code	16
 1667              		.thumb_func
 1668              		.type	CySysTickGetReload, %function
 1669              	CySysTickGetReload:
 1670              	.LFB35:
1640:.\Generated_Source\PSoC4/CyLib.c **** {
 1671              		.loc 1 1640 0
 1672              		.cfi_startproc
1641:.\Generated_Source\PSoC4/CyLib.c ****     return(CY_SYS_SYST_RVR_REG & CY_SYS_SYST_RVR_CNT_MASK);
 1673              		.loc 1 1641 0
 1674 0000 024B     		ldr	r3, .L126
1642:.\Generated_Source\PSoC4/CyLib.c **** }
 1675              		.loc 1 1642 0
 1676              		@ sp needed
1641:.\Generated_Source\PSoC4/CyLib.c ****     return(CY_SYS_SYST_RVR_REG & CY_SYS_SYST_RVR_CNT_MASK);
 1677              		.loc 1 1641 0
 1678 0002 1868     		ldr	r0, [r3]
 1679 0004 0002     		lsl	r0, r0, #8
 1680 0006 000A     		lsr	r0, r0, #8
1642:.\Generated_Source\PSoC4/CyLib.c **** }
 1681              		.loc 1 1642 0
 1682 0008 7047     		bx	lr
 1683              	.L127:
 1684 000a C046     		.align	2
 1685              	.L126:
 1686 000c 14E000E0 		.word	-536813548
 1687              		.cfi_endproc
 1688              	.LFE35:
 1689              		.size	CySysTickGetReload, .-CySysTickGetReload
 1690              		.section	.text.CySysTickGetValue,"ax",%progbits
 1691              		.align	1
 1692              		.global	CySysTickGetValue
 1693              		.code	16
 1694              		.thumb_func
 1695              		.type	CySysTickGetValue, %function
 1696              	CySysTickGetValue:
 1697              	.LFB36:
1660:.\Generated_Source\PSoC4/CyLib.c **** {
 1698              		.loc 1 1660 0
 1699              		.cfi_startproc
1661:.\Generated_Source\PSoC4/CyLib.c ****     return(CY_SYS_SYST_CVR_REG & CY_SYS_SYST_CVR_CNT_MASK);
 1700              		.loc 1 1661 0
 1701 0000 024B     		ldr	r3, .L129
1662:.\Generated_Source\PSoC4/CyLib.c **** }
ARM GAS  C:\Users\moxon\AppData\Local\Temp\ccM9MmHX.s 			page 65


 1702              		.loc 1 1662 0
 1703              		@ sp needed
1661:.\Generated_Source\PSoC4/CyLib.c ****     return(CY_SYS_SYST_CVR_REG & CY_SYS_SYST_CVR_CNT_MASK);
 1704              		.loc 1 1661 0
 1705 0002 1868     		ldr	r0, [r3]
 1706 0004 0002     		lsl	r0, r0, #8
 1707 0006 000A     		lsr	r0, r0, #8
1662:.\Generated_Source\PSoC4/CyLib.c **** }
 1708              		.loc 1 1662 0
 1709 0008 7047     		bx	lr
 1710              	.L130:
 1711 000a C046     		.align	2
 1712              	.L129:
 1713 000c 18E000E0 		.word	-536813544
 1714              		.cfi_endproc
 1715              	.LFE36:
 1716              		.size	CySysTickGetValue, .-CySysTickGetValue
 1717              		.section	.text.CySysTickGetCountFlag,"ax",%progbits
 1718              		.align	1
 1719              		.global	CySysTickGetCountFlag
 1720              		.code	16
 1721              		.thumb_func
 1722              		.type	CySysTickGetCountFlag, %function
 1723              	CySysTickGetCountFlag:
 1724              	.LFB37:
1725:.\Generated_Source\PSoC4/CyLib.c **** {
 1725              		.loc 1 1725 0
 1726              		.cfi_startproc
1726:.\Generated_Source\PSoC4/CyLib.c ****     return ((CY_SYS_SYST_CSR_REG>>CY_SYS_SYST_CSR_COUNTFLAG_SHIFT) & 0x01u);
 1727              		.loc 1 1726 0
 1728 0000 024B     		ldr	r3, .L132
1727:.\Generated_Source\PSoC4/CyLib.c **** }
 1729              		.loc 1 1727 0
 1730              		@ sp needed
1726:.\Generated_Source\PSoC4/CyLib.c ****     return ((CY_SYS_SYST_CSR_REG>>CY_SYS_SYST_CSR_COUNTFLAG_SHIFT) & 0x01u);
 1731              		.loc 1 1726 0
 1732 0002 1868     		ldr	r0, [r3]
 1733 0004 C003     		lsl	r0, r0, #15
 1734 0006 C00F     		lsr	r0, r0, #31
1727:.\Generated_Source\PSoC4/CyLib.c **** }
 1735              		.loc 1 1727 0
 1736 0008 7047     		bx	lr
 1737              	.L133:
 1738 000a C046     		.align	2
 1739              	.L132:
 1740 000c 10E000E0 		.word	-536813552
 1741              		.cfi_endproc
 1742              	.LFE37:
 1743              		.size	CySysTickGetCountFlag, .-CySysTickGetCountFlag
 1744              		.section	.text.CySysTickServiceCallbacks,"ax",%progbits
 1745              		.align	1
 1746              		.code	16
 1747              		.thumb_func
 1748              		.type	CySysTickServiceCallbacks, %function
 1749              	CySysTickServiceCallbacks:
 1750              	.LFB41:
1747:.\Generated_Source\PSoC4/CyLib.c **** }
ARM GAS  C:\Users\moxon\AppData\Local\Temp\ccM9MmHX.s 			page 66


1748:.\Generated_Source\PSoC4/CyLib.c **** 
1749:.\Generated_Source\PSoC4/CyLib.c **** 
1750:.\Generated_Source\PSoC4/CyLib.c **** /*******************************************************************************
1751:.\Generated_Source\PSoC4/CyLib.c **** * Function Name: CySysTickSetCallback
1752:.\Generated_Source\PSoC4/CyLib.c **** ********************************************************************************
1753:.\Generated_Source\PSoC4/CyLib.c **** *
1754:.\Generated_Source\PSoC4/CyLib.c **** * Summary:
1755:.\Generated_Source\PSoC4/CyLib.c **** *  This function allows up to five user-defined interrupt service routine
1756:.\Generated_Source\PSoC4/CyLib.c **** *  functions to be associated with the SysTick interrupt. These are specified
1757:.\Generated_Source\PSoC4/CyLib.c **** *  through the use of pointers to the function.
1758:.\Generated_Source\PSoC4/CyLib.c **** *
1759:.\Generated_Source\PSoC4/CyLib.c **** *  To set a custom callback function without the overhead of the system provided
1760:.\Generated_Source\PSoC4/CyLib.c **** *  one, use CyIntSetSysVector(CY_INT_SYSTICK_IRQN, cyisraddress <address>),
1761:.\Generated_Source\PSoC4/CyLib.c **** *  where <address> is address of the custom defined interrupt service routine.
1762:.\Generated_Source\PSoC4/CyLib.c **** *  Note: a custom callback function overrides the system defined callback
1763:.\Generated_Source\PSoC4/CyLib.c **** *  functions.
1764:.\Generated_Source\PSoC4/CyLib.c **** *
1765:.\Generated_Source\PSoC4/CyLib.c **** * Parameters:
1766:.\Generated_Source\PSoC4/CyLib.c **** *  number: The number of the callback function addresses to be set. The valid
1767:.\Generated_Source\PSoC4/CyLib.c **** *          range is from 0 to 4.
1768:.\Generated_Source\PSoC4/CyLib.c **** *
1769:.\Generated_Source\PSoC4/CyLib.c **** *  void(*CallbackFunction(void): A pointer to the function that will be
1770:.\Generated_Source\PSoC4/CyLib.c **** *                                associated with the SysTick ISR for the
1771:.\Generated_Source\PSoC4/CyLib.c **** *                                specified number.
1772:.\Generated_Source\PSoC4/CyLib.c **** *
1773:.\Generated_Source\PSoC4/CyLib.c **** * Return:
1774:.\Generated_Source\PSoC4/CyLib.c **** *  Returns the address of the previous callback function.
1775:.\Generated_Source\PSoC4/CyLib.c **** *  The NULL is returned if the specified address in not set.
1776:.\Generated_Source\PSoC4/CyLib.c **** *
1777:.\Generated_Source\PSoC4/CyLib.c **** * Side Effects:
1778:.\Generated_Source\PSoC4/CyLib.c **** *  The registered callback functions will be executed in the interrupt.
1779:.\Generated_Source\PSoC4/CyLib.c **** *
1780:.\Generated_Source\PSoC4/CyLib.c **** *******************************************************************************/
1781:.\Generated_Source\PSoC4/CyLib.c **** cySysTickCallback CySysTickSetCallback(uint32 number, cySysTickCallback function)
1782:.\Generated_Source\PSoC4/CyLib.c **** {
1783:.\Generated_Source\PSoC4/CyLib.c ****     cySysTickCallback retVal;
1784:.\Generated_Source\PSoC4/CyLib.c **** 
1785:.\Generated_Source\PSoC4/CyLib.c ****     retVal = CySysTickCallbacks[number];
1786:.\Generated_Source\PSoC4/CyLib.c ****     CySysTickCallbacks[number] = function;
1787:.\Generated_Source\PSoC4/CyLib.c ****     return (retVal);
1788:.\Generated_Source\PSoC4/CyLib.c **** }
1789:.\Generated_Source\PSoC4/CyLib.c **** 
1790:.\Generated_Source\PSoC4/CyLib.c **** 
1791:.\Generated_Source\PSoC4/CyLib.c **** /*******************************************************************************
1792:.\Generated_Source\PSoC4/CyLib.c **** * Function Name: CySysTickGetCallback
1793:.\Generated_Source\PSoC4/CyLib.c **** ********************************************************************************
1794:.\Generated_Source\PSoC4/CyLib.c **** *
1795:.\Generated_Source\PSoC4/CyLib.c **** * Summary:
1796:.\Generated_Source\PSoC4/CyLib.c **** *  The function get the specified callback pointer.
1797:.\Generated_Source\PSoC4/CyLib.c **** *
1798:.\Generated_Source\PSoC4/CyLib.c **** * Parameters:
1799:.\Generated_Source\PSoC4/CyLib.c **** *  number: The number of callback function address to get. The valid
1800:.\Generated_Source\PSoC4/CyLib.c **** *          range is from 0 to 4.
1801:.\Generated_Source\PSoC4/CyLib.c **** *
1802:.\Generated_Source\PSoC4/CyLib.c **** * Return:
1803:.\Generated_Source\PSoC4/CyLib.c **** *  Returns the address of the specified callback function.
1804:.\Generated_Source\PSoC4/CyLib.c **** *  The NULL is returned if the specified address in not initialized.
ARM GAS  C:\Users\moxon\AppData\Local\Temp\ccM9MmHX.s 			page 67


1805:.\Generated_Source\PSoC4/CyLib.c **** *
1806:.\Generated_Source\PSoC4/CyLib.c **** *******************************************************************************/
1807:.\Generated_Source\PSoC4/CyLib.c **** cySysTickCallback CySysTickGetCallback(uint32 number)
1808:.\Generated_Source\PSoC4/CyLib.c **** {
1809:.\Generated_Source\PSoC4/CyLib.c ****     return ((cySysTickCallback) CySysTickCallbacks[number]);
1810:.\Generated_Source\PSoC4/CyLib.c **** }
1811:.\Generated_Source\PSoC4/CyLib.c **** 
1812:.\Generated_Source\PSoC4/CyLib.c **** 
1813:.\Generated_Source\PSoC4/CyLib.c **** /*******************************************************************************
1814:.\Generated_Source\PSoC4/CyLib.c **** * Function Name: CySysTickServiceCallbacks
1815:.\Generated_Source\PSoC4/CyLib.c **** ********************************************************************************
1816:.\Generated_Source\PSoC4/CyLib.c **** *
1817:.\Generated_Source\PSoC4/CyLib.c **** * Summary:
1818:.\Generated_Source\PSoC4/CyLib.c **** *  System Tick timer interrupt routine
1819:.\Generated_Source\PSoC4/CyLib.c **** *
1820:.\Generated_Source\PSoC4/CyLib.c **** * Parameters:
1821:.\Generated_Source\PSoC4/CyLib.c **** *  None
1822:.\Generated_Source\PSoC4/CyLib.c **** *
1823:.\Generated_Source\PSoC4/CyLib.c **** * Return:
1824:.\Generated_Source\PSoC4/CyLib.c **** *  None
1825:.\Generated_Source\PSoC4/CyLib.c **** *
1826:.\Generated_Source\PSoC4/CyLib.c **** *******************************************************************************/
1827:.\Generated_Source\PSoC4/CyLib.c **** static void CySysTickServiceCallbacks(void)
1828:.\Generated_Source\PSoC4/CyLib.c **** {
 1751              		.loc 1 1828 0
 1752              		.cfi_startproc
 1753 0000 10B5     		push	{r4, lr}
 1754              		.cfi_def_cfa_offset 8
 1755              		.cfi_offset 4, -8
 1756              		.cfi_offset 14, -4
1829:.\Generated_Source\PSoC4/CyLib.c ****     uint32 i;
1830:.\Generated_Source\PSoC4/CyLib.c **** 
1831:.\Generated_Source\PSoC4/CyLib.c ****     /* Verify that tick timer flag was set */
1832:.\Generated_Source\PSoC4/CyLib.c ****     if (1u == CySysTickGetCountFlag())
 1757              		.loc 1 1832 0
 1758 0002 FFF7FEFF 		bl	CySysTickGetCountFlag
 1759              	.LVL113:
 1760 0006 0128     		cmp	r0, #1
 1761 0008 08D1     		bne	.L134
 1762 000a 0024     		mov	r4, #0
 1763              	.L138:
 1764              	.LBB80:
1833:.\Generated_Source\PSoC4/CyLib.c ****     {
1834:.\Generated_Source\PSoC4/CyLib.c ****         for (i=0u; i < CY_SYS_SYST_NUM_OF_CALLBACKS; i++)
1835:.\Generated_Source\PSoC4/CyLib.c ****         {
1836:.\Generated_Source\PSoC4/CyLib.c ****             if (CySysTickCallbacks[i] != (void *) 0)
 1765              		.loc 1 1836 0
 1766 000c 044B     		ldr	r3, .L145
 1767 000e E358     		ldr	r3, [r4, r3]
 1768 0010 002B     		cmp	r3, #0
 1769 0012 00D0     		beq	.L136
1837:.\Generated_Source\PSoC4/CyLib.c ****             {
1838:.\Generated_Source\PSoC4/CyLib.c ****                 (void)(CySysTickCallbacks[i])();
 1770              		.loc 1 1838 0
 1771 0014 9847     		blx	r3
 1772              	.LVL114:
 1773              	.L136:
ARM GAS  C:\Users\moxon\AppData\Local\Temp\ccM9MmHX.s 			page 68


 1774 0016 0434     		add	r4, r4, #4
1834:.\Generated_Source\PSoC4/CyLib.c ****         for (i=0u; i < CY_SYS_SYST_NUM_OF_CALLBACKS; i++)
 1775              		.loc 1 1834 0
 1776 0018 142C     		cmp	r4, #20
 1777 001a F7D1     		bne	.L138
 1778              	.L134:
 1779              	.LBE80:
1839:.\Generated_Source\PSoC4/CyLib.c ****             }
1840:.\Generated_Source\PSoC4/CyLib.c ****         }
1841:.\Generated_Source\PSoC4/CyLib.c ****     }
1842:.\Generated_Source\PSoC4/CyLib.c **** }
 1780              		.loc 1 1842 0
 1781              		@ sp needed
 1782 001c 10BD     		pop	{r4, pc}
 1783              	.L146:
 1784 001e C046     		.align	2
 1785              	.L145:
 1786 0020 00000000 		.word	.LANCHOR2
 1787              		.cfi_endproc
 1788              	.LFE41:
 1789              		.size	CySysTickServiceCallbacks, .-CySysTickServiceCallbacks
 1790              		.section	.text.CySysTickClear,"ax",%progbits
 1791              		.align	1
 1792              		.global	CySysTickClear
 1793              		.code	16
 1794              		.thumb_func
 1795              		.type	CySysTickClear, %function
 1796              	CySysTickClear:
 1797              	.LFB38:
1745:.\Generated_Source\PSoC4/CyLib.c **** {
 1798              		.loc 1 1745 0
 1799              		.cfi_startproc
1746:.\Generated_Source\PSoC4/CyLib.c ****     CY_SYS_SYST_CVR_REG = 0u;
 1800              		.loc 1 1746 0
 1801 0000 014B     		ldr	r3, .L148
 1802 0002 0022     		mov	r2, #0
 1803 0004 1A60     		str	r2, [r3]
1747:.\Generated_Source\PSoC4/CyLib.c **** }
 1804              		.loc 1 1747 0
 1805              		@ sp needed
 1806 0006 7047     		bx	lr
 1807              	.L149:
 1808              		.align	2
 1809              	.L148:
 1810 0008 18E000E0 		.word	-536813544
 1811              		.cfi_endproc
 1812              	.LFE38:
 1813              		.size	CySysTickClear, .-CySysTickClear
 1814              		.section	.text.CySysTickSetCallback,"ax",%progbits
 1815              		.align	1
 1816              		.global	CySysTickSetCallback
 1817              		.code	16
 1818              		.thumb_func
 1819              		.type	CySysTickSetCallback, %function
 1820              	CySysTickSetCallback:
 1821              	.LFB39:
1782:.\Generated_Source\PSoC4/CyLib.c **** {
ARM GAS  C:\Users\moxon\AppData\Local\Temp\ccM9MmHX.s 			page 69


 1822              		.loc 1 1782 0
 1823              		.cfi_startproc
 1824              	.LVL115:
1785:.\Generated_Source\PSoC4/CyLib.c ****     retVal = CySysTickCallbacks[number];
 1825              		.loc 1 1785 0
 1826 0000 024B     		ldr	r3, .L151
 1827 0002 8200     		lsl	r2, r0, #2
 1828 0004 D058     		ldr	r0, [r2, r3]
 1829              	.LVL116:
1788:.\Generated_Source\PSoC4/CyLib.c **** }
 1830              		.loc 1 1788 0
 1831              		@ sp needed
1786:.\Generated_Source\PSoC4/CyLib.c ****     CySysTickCallbacks[number] = function;
 1832              		.loc 1 1786 0
 1833 0006 D150     		str	r1, [r2, r3]
1788:.\Generated_Source\PSoC4/CyLib.c **** }
 1834              		.loc 1 1788 0
 1835 0008 7047     		bx	lr
 1836              	.L152:
 1837 000a C046     		.align	2
 1838              	.L151:
 1839 000c 00000000 		.word	.LANCHOR2
 1840              		.cfi_endproc
 1841              	.LFE39:
 1842              		.size	CySysTickSetCallback, .-CySysTickSetCallback
 1843              		.section	.text.CySysTickGetCallback,"ax",%progbits
 1844              		.align	1
 1845              		.global	CySysTickGetCallback
 1846              		.code	16
 1847              		.thumb_func
 1848              		.type	CySysTickGetCallback, %function
 1849              	CySysTickGetCallback:
 1850              	.LFB40:
1808:.\Generated_Source\PSoC4/CyLib.c **** {
 1851              		.loc 1 1808 0
 1852              		.cfi_startproc
 1853              	.LVL117:
1809:.\Generated_Source\PSoC4/CyLib.c ****     return ((cySysTickCallback) CySysTickCallbacks[number]);
 1854              		.loc 1 1809 0
 1855 0000 014B     		ldr	r3, .L154
 1856 0002 8000     		lsl	r0, r0, #2
 1857              	.LVL118:
 1858 0004 C058     		ldr	r0, [r0, r3]
1810:.\Generated_Source\PSoC4/CyLib.c **** }
 1859              		.loc 1 1810 0
 1860              		@ sp needed
 1861 0006 7047     		bx	lr
 1862              	.L155:
 1863              		.align	2
 1864              	.L154:
 1865 0008 00000000 		.word	.LANCHOR2
 1866              		.cfi_endproc
 1867              	.LFE40:
 1868              		.size	CySysTickGetCallback, .-CySysTickGetCallback
 1869              		.section	.text.CyGetUniqueId,"ax",%progbits
 1870              		.align	1
 1871              		.global	CyGetUniqueId
ARM GAS  C:\Users\moxon\AppData\Local\Temp\ccM9MmHX.s 			page 70


 1872              		.code	16
 1873              		.thumb_func
 1874              		.type	CyGetUniqueId, %function
 1875              	CyGetUniqueId:
 1876              	.LFB42:
1843:.\Generated_Source\PSoC4/CyLib.c **** 
1844:.\Generated_Source\PSoC4/CyLib.c **** 
1845:.\Generated_Source\PSoC4/CyLib.c **** /*******************************************************************************
1846:.\Generated_Source\PSoC4/CyLib.c **** * Function Name: CyGetUniqueId
1847:.\Generated_Source\PSoC4/CyLib.c **** ********************************************************************************
1848:.\Generated_Source\PSoC4/CyLib.c **** *
1849:.\Generated_Source\PSoC4/CyLib.c **** * Summary:
1850:.\Generated_Source\PSoC4/CyLib.c **** *  Returns the 64-bit unique ID of the device. The uniqueness of the number is
1851:.\Generated_Source\PSoC4/CyLib.c **** *  guaranteed for 10 years due to the die lot number having a cycle life of 10
1852:.\Generated_Source\PSoC4/CyLib.c **** *  years and even after 10 years, the probability of getting two identical
1853:.\Generated_Source\PSoC4/CyLib.c **** *  numbers is very small.
1854:.\Generated_Source\PSoC4/CyLib.c **** *
1855:.\Generated_Source\PSoC4/CyLib.c **** * Parameters:
1856:.\Generated_Source\PSoC4/CyLib.c **** *  uniqueId: The pointer to a two element 32-bit unsigned integer array. Returns
1857:.\Generated_Source\PSoC4/CyLib.c **** *  the 64-bit unique ID of the device by loading them into the integer array
1858:.\Generated_Source\PSoC4/CyLib.c **** *  pointed to by uniqueId.
1859:.\Generated_Source\PSoC4/CyLib.c **** *
1860:.\Generated_Source\PSoC4/CyLib.c **** * Return:
1861:.\Generated_Source\PSoC4/CyLib.c **** *  None
1862:.\Generated_Source\PSoC4/CyLib.c **** *
1863:.\Generated_Source\PSoC4/CyLib.c **** *******************************************************************************/
1864:.\Generated_Source\PSoC4/CyLib.c **** void CyGetUniqueId(uint32* uniqueId)
1865:.\Generated_Source\PSoC4/CyLib.c **** {
 1877              		.loc 1 1865 0
 1878              		.cfi_startproc
 1879              	.LVL119:
1866:.\Generated_Source\PSoC4/CyLib.c **** #if(CY_PSOC4)
1867:.\Generated_Source\PSoC4/CyLib.c ****     uniqueId[0u]  =  (uint32)(* (reg8 *) CYREG_SFLASH_DIE_LOT0  );
 1880              		.loc 1 1867 0
 1881 0000 134B     		ldr	r3, .L157
1868:.\Generated_Source\PSoC4/CyLib.c ****     uniqueId[0u] |= ((uint32)(* (reg8 *) CYREG_SFLASH_DIE_LOT1  ) <<  8u);
1869:.\Generated_Source\PSoC4/CyLib.c ****     uniqueId[0u] |= ((uint32)(* (reg8 *) CYREG_SFLASH_DIE_LOT2  ) << 16u);
1870:.\Generated_Source\PSoC4/CyLib.c ****     uniqueId[0u] |= ((uint32)(* (reg8 *) CYREG_SFLASH_DIE_WAFER ) << 24u);
1871:.\Generated_Source\PSoC4/CyLib.c **** 
1872:.\Generated_Source\PSoC4/CyLib.c ****     uniqueId[1u]  =  (uint32)(* (reg8 *) CYREG_SFLASH_DIE_X     );
1873:.\Generated_Source\PSoC4/CyLib.c ****     uniqueId[1u] |= ((uint32)(* (reg8 *) CYREG_SFLASH_DIE_Y     ) <<  8u);
1874:.\Generated_Source\PSoC4/CyLib.c ****     uniqueId[1u] |= ((uint32)(* (reg8 *) CYREG_SFLASH_DIE_SORT  ) << 16u);
1875:.\Generated_Source\PSoC4/CyLib.c ****     uniqueId[1u] |= ((uint32)(* (reg8 *) CYREG_SFLASH_DIE_MINOR ) << 24u);
1876:.\Generated_Source\PSoC4/CyLib.c **** #else
1877:.\Generated_Source\PSoC4/CyLib.c ****     uniqueId[0u]  =  (uint32) CY_GET_XTND_REG8((void CYFAR *) (CYREG_FLSHID_CUST_TABLES_LOT_LSB   )
1878:.\Generated_Source\PSoC4/CyLib.c ****     uniqueId[0u] |= ((uint32) CY_GET_XTND_REG8((void CYFAR *) (CYREG_FLSHID_CUST_TABLES_LOT_MSB   )
1879:.\Generated_Source\PSoC4/CyLib.c ****     uniqueId[0u] |= ((uint32) CY_GET_XTND_REG8((void CYFAR *) (CYREG_MLOGIC_REV_ID                )
1880:.\Generated_Source\PSoC4/CyLib.c ****     uniqueId[0u] |= ((uint32) CY_GET_XTND_REG8((void CYFAR *) (CYREG_FLSHID_CUST_TABLES_WAFER_NUM )
1881:.\Generated_Source\PSoC4/CyLib.c **** 
1882:.\Generated_Source\PSoC4/CyLib.c ****     uniqueId[1u]  =  (uint32) CY_GET_XTND_REG8((void CYFAR *) (CYREG_FLSHID_CUST_TABLES_X_LOC     )
1883:.\Generated_Source\PSoC4/CyLib.c ****     uniqueId[1u] |= ((uint32) CY_GET_XTND_REG8((void CYFAR *) (CYREG_FLSHID_CUST_TABLES_Y_LOC     )
1884:.\Generated_Source\PSoC4/CyLib.c ****     uniqueId[1u] |= ((uint32) CY_GET_XTND_REG8((void CYFAR *) (CYREG_FLSHID_CUST_TABLES_WRK_WK    )
1885:.\Generated_Source\PSoC4/CyLib.c ****     uniqueId[1u] |= ((uint32) CY_GET_XTND_REG8((void CYFAR *) (CYREG_FLSHID_CUST_TABLES_FAB_YR    )
1886:.\Generated_Source\PSoC4/CyLib.c **** #endif  /* (CY_PSOC4) */
1887:.\Generated_Source\PSoC4/CyLib.c **** }
 1882              		.loc 1 1887 0
 1883              		@ sp needed
ARM GAS  C:\Users\moxon\AppData\Local\Temp\ccM9MmHX.s 			page 71


1867:.\Generated_Source\PSoC4/CyLib.c ****     uniqueId[0u]  =  (uint32)(* (reg8 *) CYREG_SFLASH_DIE_LOT0  );
 1884              		.loc 1 1867 0
 1885 0002 1A78     		ldrb	r2, [r3]
1868:.\Generated_Source\PSoC4/CyLib.c ****     uniqueId[0u] |= ((uint32)(* (reg8 *) CYREG_SFLASH_DIE_LOT1  ) <<  8u);
 1886              		.loc 1 1868 0
 1887 0004 134B     		ldr	r3, .L157+4
1867:.\Generated_Source\PSoC4/CyLib.c ****     uniqueId[0u]  =  (uint32)(* (reg8 *) CYREG_SFLASH_DIE_LOT0  );
 1888              		.loc 1 1867 0
 1889 0006 D2B2     		uxtb	r2, r2
 1890 0008 0260     		str	r2, [r0]
1868:.\Generated_Source\PSoC4/CyLib.c ****     uniqueId[0u] |= ((uint32)(* (reg8 *) CYREG_SFLASH_DIE_LOT1  ) <<  8u);
 1891              		.loc 1 1868 0
 1892 000a 1B78     		ldrb	r3, [r3]
 1893 000c 1B02     		lsl	r3, r3, #8
 1894 000e 1343     		orr	r3, r2
1869:.\Generated_Source\PSoC4/CyLib.c ****     uniqueId[0u] |= ((uint32)(* (reg8 *) CYREG_SFLASH_DIE_LOT2  ) << 16u);
 1895              		.loc 1 1869 0
 1896 0010 114A     		ldr	r2, .L157+8
1868:.\Generated_Source\PSoC4/CyLib.c ****     uniqueId[0u] |= ((uint32)(* (reg8 *) CYREG_SFLASH_DIE_LOT1  ) <<  8u);
 1897              		.loc 1 1868 0
 1898 0012 0360     		str	r3, [r0]
1869:.\Generated_Source\PSoC4/CyLib.c ****     uniqueId[0u] |= ((uint32)(* (reg8 *) CYREG_SFLASH_DIE_LOT2  ) << 16u);
 1899              		.loc 1 1869 0
 1900 0014 1278     		ldrb	r2, [r2]
 1901 0016 1204     		lsl	r2, r2, #16
 1902 0018 1343     		orr	r3, r2
1870:.\Generated_Source\PSoC4/CyLib.c ****     uniqueId[0u] |= ((uint32)(* (reg8 *) CYREG_SFLASH_DIE_WAFER ) << 24u);
 1903              		.loc 1 1870 0
 1904 001a 104A     		ldr	r2, .L157+12
1869:.\Generated_Source\PSoC4/CyLib.c ****     uniqueId[0u] |= ((uint32)(* (reg8 *) CYREG_SFLASH_DIE_LOT2  ) << 16u);
 1905              		.loc 1 1869 0
 1906 001c 0360     		str	r3, [r0]
1870:.\Generated_Source\PSoC4/CyLib.c ****     uniqueId[0u] |= ((uint32)(* (reg8 *) CYREG_SFLASH_DIE_WAFER ) << 24u);
 1907              		.loc 1 1870 0
 1908 001e 1278     		ldrb	r2, [r2]
 1909 0020 1206     		lsl	r2, r2, #24
 1910 0022 1343     		orr	r3, r2
 1911 0024 0360     		str	r3, [r0]
1872:.\Generated_Source\PSoC4/CyLib.c ****     uniqueId[1u]  =  (uint32)(* (reg8 *) CYREG_SFLASH_DIE_X     );
 1912              		.loc 1 1872 0
 1913 0026 0E4B     		ldr	r3, .L157+16
 1914 0028 1A78     		ldrb	r2, [r3]
1873:.\Generated_Source\PSoC4/CyLib.c ****     uniqueId[1u] |= ((uint32)(* (reg8 *) CYREG_SFLASH_DIE_Y     ) <<  8u);
 1915              		.loc 1 1873 0
 1916 002a 0E4B     		ldr	r3, .L157+20
1872:.\Generated_Source\PSoC4/CyLib.c ****     uniqueId[1u]  =  (uint32)(* (reg8 *) CYREG_SFLASH_DIE_X     );
 1917              		.loc 1 1872 0
 1918 002c D2B2     		uxtb	r2, r2
 1919 002e 4260     		str	r2, [r0, #4]
1873:.\Generated_Source\PSoC4/CyLib.c ****     uniqueId[1u] |= ((uint32)(* (reg8 *) CYREG_SFLASH_DIE_Y     ) <<  8u);
 1920              		.loc 1 1873 0
 1921 0030 1B78     		ldrb	r3, [r3]
 1922 0032 1B02     		lsl	r3, r3, #8
 1923 0034 1343     		orr	r3, r2
1874:.\Generated_Source\PSoC4/CyLib.c ****     uniqueId[1u] |= ((uint32)(* (reg8 *) CYREG_SFLASH_DIE_SORT  ) << 16u);
 1924              		.loc 1 1874 0
 1925 0036 0C4A     		ldr	r2, .L157+24
ARM GAS  C:\Users\moxon\AppData\Local\Temp\ccM9MmHX.s 			page 72


1873:.\Generated_Source\PSoC4/CyLib.c ****     uniqueId[1u] |= ((uint32)(* (reg8 *) CYREG_SFLASH_DIE_Y     ) <<  8u);
 1926              		.loc 1 1873 0
 1927 0038 4360     		str	r3, [r0, #4]
1874:.\Generated_Source\PSoC4/CyLib.c ****     uniqueId[1u] |= ((uint32)(* (reg8 *) CYREG_SFLASH_DIE_SORT  ) << 16u);
 1928              		.loc 1 1874 0
 1929 003a 1278     		ldrb	r2, [r2]
 1930 003c 1204     		lsl	r2, r2, #16
 1931 003e 1343     		orr	r3, r2
1875:.\Generated_Source\PSoC4/CyLib.c ****     uniqueId[1u] |= ((uint32)(* (reg8 *) CYREG_SFLASH_DIE_MINOR ) << 24u);
 1932              		.loc 1 1875 0
 1933 0040 0A4A     		ldr	r2, .L157+28
1874:.\Generated_Source\PSoC4/CyLib.c ****     uniqueId[1u] |= ((uint32)(* (reg8 *) CYREG_SFLASH_DIE_SORT  ) << 16u);
 1934              		.loc 1 1874 0
 1935 0042 4360     		str	r3, [r0, #4]
1875:.\Generated_Source\PSoC4/CyLib.c ****     uniqueId[1u] |= ((uint32)(* (reg8 *) CYREG_SFLASH_DIE_MINOR ) << 24u);
 1936              		.loc 1 1875 0
 1937 0044 1278     		ldrb	r2, [r2]
 1938 0046 1206     		lsl	r2, r2, #24
 1939 0048 1343     		orr	r3, r2
 1940 004a 4360     		str	r3, [r0, #4]
 1941              		.loc 1 1887 0
 1942 004c 7047     		bx	lr
 1943              	.L158:
 1944 004e C046     		.align	2
 1945              	.L157:
 1946 0050 78F1FF0F 		.word	268431736
 1947 0054 79F1FF0F 		.word	268431737
 1948 0058 7AF1FF0F 		.word	268431738
 1949 005c 7BF1FF0F 		.word	268431739
 1950 0060 7CF1FF0F 		.word	268431740
 1951 0064 7DF1FF0F 		.word	268431741
 1952 0068 7EF1FF0F 		.word	268431742
 1953 006c 7FF1FF0F 		.word	268431743
 1954              		.cfi_endproc
 1955              	.LFE42:
 1956              		.size	CyGetUniqueId, .-CyGetUniqueId
 1957              		.global	cyImoFreqMhz2Reg
 1958              		.global	CySysTickInitVar
 1959              		.global	cydelay32kMs
 1960              		.global	cydelayFreqMhz
 1961              		.global	cydelayFreqKhz
 1962              		.global	cydelayFreqHz
 1963              		.section	.rodata
 1964              		.set	.LANCHOR1,. + 0
 1965              		.type	cyImoFreqMhz2Reg, %object
 1966              		.size	cyImoFreqMhz2Reg, 46
 1967              	cyImoFreqMhz2Reg:
 1968 0000 03       		.byte	3
 1969 0001 04       		.byte	4
 1970 0002 05       		.byte	5
 1971 0003 06       		.byte	6
 1972 0004 07       		.byte	7
 1973 0005 08       		.byte	8
 1974 0006 09       		.byte	9
 1975 0007 0A       		.byte	10
 1976 0008 0B       		.byte	11
 1977 0009 0C       		.byte	12
ARM GAS  C:\Users\moxon\AppData\Local\Temp\ccM9MmHX.s 			page 73


 1978 000a 0E       		.byte	14
 1979 000b 0F       		.byte	15
 1980 000c 10       		.byte	16
 1981 000d 11       		.byte	17
 1982 000e 12       		.byte	18
 1983 000f 13       		.byte	19
 1984 0010 14       		.byte	20
 1985 0011 15       		.byte	21
 1986 0012 16       		.byte	22
 1987 0013 17       		.byte	23
 1988 0014 18       		.byte	24
 1989 0015 19       		.byte	25
 1990 0016 1B       		.byte	27
 1991 0017 1C       		.byte	28
 1992 0018 1D       		.byte	29
 1993 0019 1E       		.byte	30
 1994 001a 1F       		.byte	31
 1995 001b 20       		.byte	32
 1996 001c 21       		.byte	33
 1997 001d 22       		.byte	34
 1998 001e 23       		.byte	35
 1999 001f 25       		.byte	37
 2000 0020 26       		.byte	38
 2001 0021 27       		.byte	39
 2002 0022 28       		.byte	40
 2003 0023 29       		.byte	41
 2004 0024 2A       		.byte	42
 2005 0025 2B       		.byte	43
 2006 0026 2E       		.byte	46
 2007 0027 2F       		.byte	47
 2008 0028 30       		.byte	48
 2009 0029 31       		.byte	49
 2010 002a 32       		.byte	50
 2011 002b 33       		.byte	51
 2012 002c 34       		.byte	52
 2013 002d 35       		.byte	53
 2014              		.data
 2015              		.align	2
 2016              		.set	.LANCHOR0,. + 0
 2017              		.type	cydelay32kMs, %object
 2018              		.size	cydelay32kMs, 4
 2019              	cydelay32kMs:
 2020 0000 0000E02E 		.word	786432000
 2021              		.type	cydelayFreqKhz, %object
 2022              		.size	cydelayFreqKhz, 4
 2023              	cydelayFreqKhz:
 2024 0004 C05D0000 		.word	24000
 2025              		.type	cydelayFreqMhz, %object
 2026              		.size	cydelayFreqMhz, 1
 2027              	cydelayFreqMhz:
 2028 0008 18       		.byte	24
 2029 0009 000000   		.space	3
 2030              		.type	cydelayFreqHz, %object
 2031              		.size	cydelayFreqHz, 4
 2032              	cydelayFreqHz:
 2033 000c 00366E01 		.word	24000000
 2034              		.bss
ARM GAS  C:\Users\moxon\AppData\Local\Temp\ccM9MmHX.s 			page 74


 2035              		.align	2
 2036              		.set	.LANCHOR2,. + 0
 2037              		.type	CySysTickCallbacks, %object
 2038              		.size	CySysTickCallbacks, 20
 2039              	CySysTickCallbacks:
 2040 0000 00000000 		.space	20
 2040      00000000 
 2040      00000000 
 2040      00000000 
 2040      00000000 
 2041              		.type	CySysTickInitVar, %object
 2042              		.size	CySysTickInitVar, 4
 2043              	CySysTickInitVar:
 2044 0014 00000000 		.space	4
 2045              		.text
 2046              	.Letext0:
 2047              		.file 2 ".\\Generated_Source\\PSoC4\\cytypes.h"
 2048              		.file 3 ".\\Generated_Source\\PSoC4\\CyLib.h"